
./a.out:     file format elf32-littlearm


Disassembly of section .text:

00000000 <main>:
       0:	b580      	push	{r7, lr}
       2:	b084      	sub	sp, #16
       4:	af00      	add	r7, sp, #0
       6:	6078      	str	r0, [r7, #4]
       8:	6039      	str	r1, [r7, #0]
       a:	687b      	ldr	r3, [r7, #4]
       c:	2b01      	cmp	r3, #1
       e:	dc05      	bgt.n	1c <main+0x1c>
      10:	4b2e      	ldr	r3, [pc, #184]	; (cc <main+0xcc>)
      12:	0018      	movs	r0, r3
      14:	f7ff fffe 	bl	0 <puts>
      18:	2301      	movs	r3, #1
      1a:	e052      	b.n	c2 <main+0xc2>
      1c:	2380      	movs	r3, #128	; 0x80
      1e:	039a      	lsls	r2, r3, #14
      20:	4b2b      	ldr	r3, [pc, #172]	; (d0 <main+0xd0>)
      22:	21ff      	movs	r1, #255	; 0xff
      24:	0018      	movs	r0, r3
      26:	f7ff fffe 	bl	0 <memset>
      2a:	2380      	movs	r3, #128	; 0x80
      2c:	035a      	lsls	r2, r3, #13
      2e:	4b29      	ldr	r3, [pc, #164]	; (d4 <main+0xd4>)
      30:	21ff      	movs	r1, #255	; 0xff
      32:	0018      	movs	r0, r3
      34:	f7ff fffe 	bl	0 <memset>
      38:	f7ff fffe 	bl	0 <system_init>
      3c:	683b      	ldr	r3, [r7, #0]
      3e:	3304      	adds	r3, #4
      40:	681b      	ldr	r3, [r3, #0]
      42:	4a24      	ldr	r2, [pc, #144]	; (d4 <main+0xd4>)
      44:	4922      	ldr	r1, [pc, #136]	; (d0 <main+0xd0>)
      46:	0018      	movs	r0, r3
      48:	f7ff fffe 	bl	0 <load_program>
      4c:	1e03      	subs	r3, r0, #0
      4e:	da01      	bge.n	54 <main+0x54>
      50:	2301      	movs	r3, #1
      52:	e036      	b.n	c2 <main+0xc2>
      54:	4b20      	ldr	r3, [pc, #128]	; (d8 <main+0xd8>)
      56:	0019      	movs	r1, r3
      58:	2002      	movs	r0, #2
      5a:	f7ff fffe 	bl	0 <signal>
      5e:	4b1f      	ldr	r3, [pc, #124]	; (dc <main+0xdc>)
      60:	2200      	movs	r2, #0
      62:	641a      	str	r2, [r3, #64]	; 0x40
      64:	4b1d      	ldr	r3, [pc, #116]	; (dc <main+0xdc>)
      66:	2201      	movs	r2, #1
      68:	4252      	negs	r2, r2
      6a:	639a      	str	r2, [r3, #56]	; 0x38
      6c:	4b1c      	ldr	r3, [pc, #112]	; (e0 <main+0xe0>)
      6e:	2100      	movs	r1, #0
      70:	0018      	movs	r0, r3
      72:	f7ff fffe 	bl	30c <load_from_memory>
      76:	4b1b      	ldr	r3, [pc, #108]	; (e4 <main+0xe4>)
      78:	2104      	movs	r1, #4
      7a:	0018      	movs	r0, r3
      7c:	f7ff fffe 	bl	30c <load_from_memory>
      80:	4b16      	ldr	r3, [pc, #88]	; (dc <main+0xdc>)
      82:	6bdb      	ldr	r3, [r3, #60]	; 0x3c
      84:	1c9a      	adds	r2, r3, #2
      86:	4b15      	ldr	r3, [pc, #84]	; (dc <main+0xdc>)
      88:	63da      	str	r2, [r3, #60]	; 0x3c
      8a:	687b      	ldr	r3, [r7, #4]
      8c:	2b03      	cmp	r3, #3
      8e:	d10b      	bne.n	a8 <main+0xa8>
      90:	683b      	ldr	r3, [r7, #0]
      92:	3308      	adds	r3, #8
      94:	681b      	ldr	r3, [r3, #0]
      96:	4a14      	ldr	r2, [pc, #80]	; (e8 <main+0xe8>)
      98:	0011      	movs	r1, r2
      9a:	0018      	movs	r0, r3
      9c:	f7ff fffe 	bl	0 <strcmp>
      a0:	1e03      	subs	r3, r0, #0
      a2:	d101      	bne.n	a8 <main+0xa8>
      a4:	2301      	movs	r3, #1
      a6:	e000      	b.n	aa <main+0xaa>
      a8:	2300      	movs	r3, #0
      aa:	60fb      	str	r3, [r7, #12]
      ac:	68fb      	ldr	r3, [r7, #12]
      ae:	0018      	movs	r0, r3
      b0:	f7ff fffe 	bl	398 <execute_next>
      b4:	1e03      	subs	r3, r0, #0
      b6:	d100      	bne.n	ba <main+0xba>
      b8:	e7f8      	b.n	ac <main+0xac>
      ba:	46c0      	nop			; (mov r8, r8)
      bc:	f7ff fffe 	bl	0 <system_deinit>
      c0:	2300      	movs	r3, #0
      c2:	0018      	movs	r0, r3
      c4:	46bd      	mov	sp, r7
      c6:	b004      	add	sp, #16
      c8:	bd80      	pop	{r7, pc}
      ca:	46c0      	nop			; (mov r8, r8)
	...
      e0:	00000034 	.word	0x00000034
      e4:	0000003c 	.word	0x0000003c
      e8:	00000034 	.word	0x00000034

000000ec <update_nz_flags>:
      ec:	b580      	push	{r7, lr}
      ee:	b082      	sub	sp, #8
      f0:	af00      	add	r7, sp, #0
      f2:	6078      	str	r0, [r7, #4]
      f4:	687b      	ldr	r3, [r7, #4]
      f6:	2b00      	cmp	r3, #0
      f8:	d107      	bne.n	10a <update_nz_flags+0x1e>
      fa:	4b11      	ldr	r3, [pc, #68]	; (140 <update_nz_flags+0x54>)
      fc:	6c1b      	ldr	r3, [r3, #64]	; 0x40
      fe:	2280      	movs	r2, #128	; 0x80
     100:	05d2      	lsls	r2, r2, #23
     102:	431a      	orrs	r2, r3
     104:	4b0e      	ldr	r3, [pc, #56]	; (140 <update_nz_flags+0x54>)
     106:	641a      	str	r2, [r3, #64]	; 0x40
     108:	e005      	b.n	116 <update_nz_flags+0x2a>
     10a:	4b0d      	ldr	r3, [pc, #52]	; (140 <update_nz_flags+0x54>)
     10c:	6c1b      	ldr	r3, [r3, #64]	; 0x40
     10e:	4a0d      	ldr	r2, [pc, #52]	; (144 <update_nz_flags+0x58>)
     110:	401a      	ands	r2, r3
     112:	4b0b      	ldr	r3, [pc, #44]	; (140 <update_nz_flags+0x54>)
     114:	641a      	str	r2, [r3, #64]	; 0x40
     116:	687b      	ldr	r3, [r7, #4]
     118:	2b00      	cmp	r3, #0
     11a:	da07      	bge.n	12c <update_nz_flags+0x40>
     11c:	4b08      	ldr	r3, [pc, #32]	; (140 <update_nz_flags+0x54>)
     11e:	6c1b      	ldr	r3, [r3, #64]	; 0x40
     120:	2280      	movs	r2, #128	; 0x80
     122:	0612      	lsls	r2, r2, #24
     124:	431a      	orrs	r2, r3
     126:	4b06      	ldr	r3, [pc, #24]	; (140 <update_nz_flags+0x54>)
     128:	641a      	str	r2, [r3, #64]	; 0x40
     12a:	e005      	b.n	138 <update_nz_flags+0x4c>
     12c:	4b04      	ldr	r3, [pc, #16]	; (140 <update_nz_flags+0x54>)
     12e:	6c1b      	ldr	r3, [r3, #64]	; 0x40
     130:	005b      	lsls	r3, r3, #1
     132:	085a      	lsrs	r2, r3, #1
     134:	4b02      	ldr	r3, [pc, #8]	; (140 <update_nz_flags+0x54>)
     136:	641a      	str	r2, [r3, #64]	; 0x40
     138:	46c0      	nop			; (mov r8, r8)
     13a:	46bd      	mov	sp, r7
     13c:	b002      	add	sp, #8
     13e:	bd80      	pop	{r7, pc}
     140:	00000000 	.word	0x00000000
     144:	bfffffff 	.word	0xbfffffff

00000148 <update_vc_flags_in_addition>:
     148:	b580      	push	{r7, lr}
     14a:	b084      	sub	sp, #16
     14c:	af00      	add	r7, sp, #0
     14e:	60f8      	str	r0, [r7, #12]
     150:	60b9      	str	r1, [r7, #8]
     152:	607a      	str	r2, [r7, #4]
     154:	68fb      	ldr	r3, [r7, #12]
     156:	2b00      	cmp	r3, #0
     158:	dd0d      	ble.n	176 <update_vc_flags_in_addition+0x2e>
     15a:	68bb      	ldr	r3, [r7, #8]
     15c:	2b00      	cmp	r3, #0
     15e:	dd0a      	ble.n	176 <update_vc_flags_in_addition+0x2e>
     160:	687b      	ldr	r3, [r7, #4]
     162:	2b00      	cmp	r3, #0
     164:	da07      	bge.n	176 <update_vc_flags_in_addition+0x2e>
     166:	4b1b      	ldr	r3, [pc, #108]	; (1d4 <update_vc_flags_in_addition+0x8c>)
     168:	6c1b      	ldr	r3, [r3, #64]	; 0x40
     16a:	2280      	movs	r2, #128	; 0x80
     16c:	0552      	lsls	r2, r2, #21
     16e:	431a      	orrs	r2, r3
     170:	4b18      	ldr	r3, [pc, #96]	; (1d4 <update_vc_flags_in_addition+0x8c>)
     172:	641a      	str	r2, [r3, #64]	; 0x40
     174:	e016      	b.n	1a4 <update_vc_flags_in_addition+0x5c>
     176:	68fb      	ldr	r3, [r7, #12]
     178:	2b00      	cmp	r3, #0
     17a:	da0d      	bge.n	198 <update_vc_flags_in_addition+0x50>
     17c:	68bb      	ldr	r3, [r7, #8]
     17e:	2b00      	cmp	r3, #0
     180:	da0a      	bge.n	198 <update_vc_flags_in_addition+0x50>
     182:	687b      	ldr	r3, [r7, #4]
     184:	2b00      	cmp	r3, #0
     186:	dd07      	ble.n	198 <update_vc_flags_in_addition+0x50>
     188:	4b12      	ldr	r3, [pc, #72]	; (1d4 <update_vc_flags_in_addition+0x8c>)
     18a:	6c1b      	ldr	r3, [r3, #64]	; 0x40
     18c:	2280      	movs	r2, #128	; 0x80
     18e:	0552      	lsls	r2, r2, #21
     190:	431a      	orrs	r2, r3
     192:	4b10      	ldr	r3, [pc, #64]	; (1d4 <update_vc_flags_in_addition+0x8c>)
     194:	641a      	str	r2, [r3, #64]	; 0x40
     196:	e005      	b.n	1a4 <update_vc_flags_in_addition+0x5c>
     198:	4b0e      	ldr	r3, [pc, #56]	; (1d4 <update_vc_flags_in_addition+0x8c>)
     19a:	6c1b      	ldr	r3, [r3, #64]	; 0x40
     19c:	4a0e      	ldr	r2, [pc, #56]	; (1d8 <update_vc_flags_in_addition+0x90>)
     19e:	401a      	ands	r2, r3
     1a0:	4b0c      	ldr	r3, [pc, #48]	; (1d4 <update_vc_flags_in_addition+0x8c>)
     1a2:	641a      	str	r2, [r3, #64]	; 0x40
     1a4:	68fb      	ldr	r3, [r7, #12]
     1a6:	43da      	mvns	r2, r3
     1a8:	68bb      	ldr	r3, [r7, #8]
     1aa:	429a      	cmp	r2, r3
     1ac:	d207      	bcs.n	1be <update_vc_flags_in_addition+0x76>
     1ae:	4b09      	ldr	r3, [pc, #36]	; (1d4 <update_vc_flags_in_addition+0x8c>)
     1b0:	6c1b      	ldr	r3, [r3, #64]	; 0x40
     1b2:	2280      	movs	r2, #128	; 0x80
     1b4:	0592      	lsls	r2, r2, #22
     1b6:	431a      	orrs	r2, r3
     1b8:	4b06      	ldr	r3, [pc, #24]	; (1d4 <update_vc_flags_in_addition+0x8c>)
     1ba:	641a      	str	r2, [r3, #64]	; 0x40
     1bc:	e005      	b.n	1ca <update_vc_flags_in_addition+0x82>
     1be:	4b05      	ldr	r3, [pc, #20]	; (1d4 <update_vc_flags_in_addition+0x8c>)
     1c0:	6c1b      	ldr	r3, [r3, #64]	; 0x40
     1c2:	4a06      	ldr	r2, [pc, #24]	; (1dc <update_vc_flags_in_addition+0x94>)
     1c4:	401a      	ands	r2, r3
     1c6:	4b03      	ldr	r3, [pc, #12]	; (1d4 <update_vc_flags_in_addition+0x8c>)
     1c8:	641a      	str	r2, [r3, #64]	; 0x40
     1ca:	46c0      	nop			; (mov r8, r8)
     1cc:	46bd      	mov	sp, r7
     1ce:	b004      	add	sp, #16
     1d0:	bd80      	pop	{r7, pc}
     1d2:	46c0      	nop			; (mov r8, r8)
     1d4:	00000000 	.word	0x00000000
     1d8:	efffffff 	.word	0xefffffff
     1dc:	dfffffff 	.word	0xdfffffff

000001e0 <update_vc_flags_in_subtraction>:
     1e0:	b580      	push	{r7, lr}
     1e2:	b084      	sub	sp, #16
     1e4:	af00      	add	r7, sp, #0
     1e6:	60f8      	str	r0, [r7, #12]
     1e8:	60b9      	str	r1, [r7, #8]
     1ea:	607a      	str	r2, [r7, #4]
     1ec:	68fb      	ldr	r3, [r7, #12]
     1ee:	2b00      	cmp	r3, #0
     1f0:	da0d      	bge.n	20e <update_vc_flags_in_subtraction+0x2e>
     1f2:	68bb      	ldr	r3, [r7, #8]
     1f4:	2b00      	cmp	r3, #0
     1f6:	dd0a      	ble.n	20e <update_vc_flags_in_subtraction+0x2e>
     1f8:	687b      	ldr	r3, [r7, #4]
     1fa:	2b00      	cmp	r3, #0
     1fc:	dd07      	ble.n	20e <update_vc_flags_in_subtraction+0x2e>
     1fe:	4b1a      	ldr	r3, [pc, #104]	; (268 <update_vc_flags_in_subtraction+0x88>)
     200:	6c1b      	ldr	r3, [r3, #64]	; 0x40
     202:	2280      	movs	r2, #128	; 0x80
     204:	0552      	lsls	r2, r2, #21
     206:	431a      	orrs	r2, r3
     208:	4b17      	ldr	r3, [pc, #92]	; (268 <update_vc_flags_in_subtraction+0x88>)
     20a:	641a      	str	r2, [r3, #64]	; 0x40
     20c:	e016      	b.n	23c <update_vc_flags_in_subtraction+0x5c>
     20e:	68fb      	ldr	r3, [r7, #12]
     210:	2b00      	cmp	r3, #0
     212:	dd0d      	ble.n	230 <update_vc_flags_in_subtraction+0x50>
     214:	68bb      	ldr	r3, [r7, #8]
     216:	2b00      	cmp	r3, #0
     218:	da0a      	bge.n	230 <update_vc_flags_in_subtraction+0x50>
     21a:	687b      	ldr	r3, [r7, #4]
     21c:	2b00      	cmp	r3, #0
     21e:	da07      	bge.n	230 <update_vc_flags_in_subtraction+0x50>
     220:	4b11      	ldr	r3, [pc, #68]	; (268 <update_vc_flags_in_subtraction+0x88>)
     222:	6c1b      	ldr	r3, [r3, #64]	; 0x40
     224:	2280      	movs	r2, #128	; 0x80
     226:	0552      	lsls	r2, r2, #21
     228:	431a      	orrs	r2, r3
     22a:	4b0f      	ldr	r3, [pc, #60]	; (268 <update_vc_flags_in_subtraction+0x88>)
     22c:	641a      	str	r2, [r3, #64]	; 0x40
     22e:	e005      	b.n	23c <update_vc_flags_in_subtraction+0x5c>
     230:	4b0d      	ldr	r3, [pc, #52]	; (268 <update_vc_flags_in_subtraction+0x88>)
     232:	6c1b      	ldr	r3, [r3, #64]	; 0x40
     234:	4a0d      	ldr	r2, [pc, #52]	; (26c <update_vc_flags_in_subtraction+0x8c>)
     236:	401a      	ands	r2, r3
     238:	4b0b      	ldr	r3, [pc, #44]	; (268 <update_vc_flags_in_subtraction+0x88>)
     23a:	641a      	str	r2, [r3, #64]	; 0x40
     23c:	68fa      	ldr	r2, [r7, #12]
     23e:	68bb      	ldr	r3, [r7, #8]
     240:	1ad3      	subs	r3, r2, r3
     242:	d506      	bpl.n	252 <update_vc_flags_in_subtraction+0x72>
     244:	4b08      	ldr	r3, [pc, #32]	; (268 <update_vc_flags_in_subtraction+0x88>)
     246:	6c1b      	ldr	r3, [r3, #64]	; 0x40
     248:	4a09      	ldr	r2, [pc, #36]	; (270 <update_vc_flags_in_subtraction+0x90>)
     24a:	401a      	ands	r2, r3
     24c:	4b06      	ldr	r3, [pc, #24]	; (268 <update_vc_flags_in_subtraction+0x88>)
     24e:	641a      	str	r2, [r3, #64]	; 0x40
     250:	e006      	b.n	260 <update_vc_flags_in_subtraction+0x80>
     252:	4b05      	ldr	r3, [pc, #20]	; (268 <update_vc_flags_in_subtraction+0x88>)
     254:	6c1b      	ldr	r3, [r3, #64]	; 0x40
     256:	2280      	movs	r2, #128	; 0x80
     258:	0592      	lsls	r2, r2, #22
     25a:	431a      	orrs	r2, r3
     25c:	4b02      	ldr	r3, [pc, #8]	; (268 <update_vc_flags_in_subtraction+0x88>)
     25e:	641a      	str	r2, [r3, #64]	; 0x40
     260:	46c0      	nop			; (mov r8, r8)
     262:	46bd      	mov	sp, r7
     264:	b004      	add	sp, #16
     266:	bd80      	pop	{r7, pc}
     268:	00000000 	.word	0x00000000
     26c:	efffffff 	.word	0xefffffff
     270:	dfffffff 	.word	0xdfffffff

00000274 <sigint_handler>:
     274:	b580      	push	{r7, lr}
     276:	af00      	add	r7, sp, #0
     278:	4b03      	ldr	r3, [pc, #12]	; (288 <sigint_handler+0x14>)
     27a:	0018      	movs	r0, r3
     27c:	f7ff fffe 	bl	0 <puts>
     280:	2000      	movs	r0, #0
     282:	f7ff fffe 	bl	0 <exit>
     286:	46c0      	nop			; (mov r8, r8)
     288:	0000003c 	.word	0x0000003c

0000028c <store_to_memory>:
     28c:	b580      	push	{r7, lr}
     28e:	b082      	sub	sp, #8
     290:	af00      	add	r7, sp, #0
     292:	6078      	str	r0, [r7, #4]
     294:	6039      	str	r1, [r7, #0]
     296:	683b      	ldr	r3, [r7, #0]
     298:	2203      	movs	r2, #3
     29a:	4393      	bics	r3, r2
     29c:	603b      	str	r3, [r7, #0]
     29e:	683a      	ldr	r2, [r7, #0]
     2a0:	2380      	movs	r3, #128	; 0x80
     2a2:	059b      	lsls	r3, r3, #22
     2a4:	429a      	cmp	r2, r3
     2a6:	d205      	bcs.n	2b4 <store_to_memory+0x28>
     2a8:	683a      	ldr	r2, [r7, #0]
     2aa:	4b16      	ldr	r3, [pc, #88]	; (304 <store_to_memory+0x78>)
     2ac:	18d3      	adds	r3, r2, r3
     2ae:	687a      	ldr	r2, [r7, #4]
     2b0:	601a      	str	r2, [r3, #0]
     2b2:	e022      	b.n	2fa <store_to_memory+0x6e>
     2b4:	683a      	ldr	r2, [r7, #0]
     2b6:	2380      	movs	r3, #128	; 0x80
     2b8:	059b      	lsls	r3, r3, #22
     2ba:	429a      	cmp	r2, r3
     2bc:	d30d      	bcc.n	2da <store_to_memory+0x4e>
     2be:	683a      	ldr	r2, [r7, #0]
     2c0:	2380      	movs	r3, #128	; 0x80
     2c2:	05db      	lsls	r3, r3, #23
     2c4:	429a      	cmp	r2, r3
     2c6:	d208      	bcs.n	2da <store_to_memory+0x4e>
     2c8:	683b      	ldr	r3, [r7, #0]
     2ca:	22e0      	movs	r2, #224	; 0xe0
     2cc:	0612      	lsls	r2, r2, #24
     2ce:	189a      	adds	r2, r3, r2
     2d0:	4b0d      	ldr	r3, [pc, #52]	; (308 <store_to_memory+0x7c>)
     2d2:	18d3      	adds	r3, r2, r3
     2d4:	687a      	ldr	r2, [r7, #4]
     2d6:	601a      	str	r2, [r3, #0]
     2d8:	e00f      	b.n	2fa <store_to_memory+0x6e>
     2da:	683a      	ldr	r2, [r7, #0]
     2dc:	2380      	movs	r3, #128	; 0x80
     2de:	05db      	lsls	r3, r3, #23
     2e0:	429a      	cmp	r2, r3
     2e2:	d30a      	bcc.n	2fa <store_to_memory+0x6e>
     2e4:	683a      	ldr	r2, [r7, #0]
     2e6:	23c0      	movs	r3, #192	; 0xc0
     2e8:	05db      	lsls	r3, r3, #23
     2ea:	429a      	cmp	r2, r3
     2ec:	d205      	bcs.n	2fa <store_to_memory+0x6e>
     2ee:	687a      	ldr	r2, [r7, #4]
     2f0:	683b      	ldr	r3, [r7, #0]
     2f2:	0011      	movs	r1, r2
     2f4:	0018      	movs	r0, r3
     2f6:	f7ff fffe 	bl	0 <peripheral_write>
     2fa:	46c0      	nop			; (mov r8, r8)
     2fc:	46bd      	mov	sp, r7
     2fe:	b002      	add	sp, #8
     300:	bd80      	pop	{r7, pc}
     302:	46c0      	nop			; (mov r8, r8)
	...

0000030c <load_from_memory>:
     30c:	b580      	push	{r7, lr}
     30e:	b084      	sub	sp, #16
     310:	af00      	add	r7, sp, #0
     312:	6078      	str	r0, [r7, #4]
     314:	6039      	str	r1, [r7, #0]
     316:	683b      	ldr	r3, [r7, #0]
     318:	2203      	movs	r2, #3
     31a:	4393      	bics	r3, r2
     31c:	603b      	str	r3, [r7, #0]
     31e:	683a      	ldr	r2, [r7, #0]
     320:	2380      	movs	r3, #128	; 0x80
     322:	059b      	lsls	r3, r3, #22
     324:	429a      	cmp	r2, r3
     326:	d208      	bcs.n	33a <load_from_memory+0x2e>
     328:	683b      	ldr	r3, [r7, #0]
     32a:	60fb      	str	r3, [r7, #12]
     32c:	68fa      	ldr	r2, [r7, #12]
     32e:	4b18      	ldr	r3, [pc, #96]	; (390 <load_from_memory+0x84>)
     330:	18d3      	adds	r3, r2, r3
     332:	681a      	ldr	r2, [r3, #0]
     334:	687b      	ldr	r3, [r7, #4]
     336:	601a      	str	r2, [r3, #0]
     338:	e026      	b.n	388 <load_from_memory+0x7c>
     33a:	683a      	ldr	r2, [r7, #0]
     33c:	2380      	movs	r3, #128	; 0x80
     33e:	059b      	lsls	r3, r3, #22
     340:	429a      	cmp	r2, r3
     342:	d311      	bcc.n	368 <load_from_memory+0x5c>
     344:	683a      	ldr	r2, [r7, #0]
     346:	2380      	movs	r3, #128	; 0x80
     348:	05db      	lsls	r3, r3, #23
     34a:	429a      	cmp	r2, r3
     34c:	d20c      	bcs.n	368 <load_from_memory+0x5c>
     34e:	683b      	ldr	r3, [r7, #0]
     350:	22e0      	movs	r2, #224	; 0xe0
     352:	0612      	lsls	r2, r2, #24
     354:	4694      	mov	ip, r2
     356:	4463      	add	r3, ip
     358:	60fb      	str	r3, [r7, #12]
     35a:	68fa      	ldr	r2, [r7, #12]
     35c:	4b0d      	ldr	r3, [pc, #52]	; (394 <load_from_memory+0x88>)
     35e:	18d3      	adds	r3, r2, r3
     360:	681a      	ldr	r2, [r3, #0]
     362:	687b      	ldr	r3, [r7, #4]
     364:	601a      	str	r2, [r3, #0]
     366:	e00f      	b.n	388 <load_from_memory+0x7c>
     368:	683a      	ldr	r2, [r7, #0]
     36a:	2380      	movs	r3, #128	; 0x80
     36c:	05db      	lsls	r3, r3, #23
     36e:	429a      	cmp	r2, r3
     370:	d30a      	bcc.n	388 <load_from_memory+0x7c>
     372:	683a      	ldr	r2, [r7, #0]
     374:	23c0      	movs	r3, #192	; 0xc0
     376:	05db      	lsls	r3, r3, #23
     378:	429a      	cmp	r2, r3
     37a:	d205      	bcs.n	388 <load_from_memory+0x7c>
     37c:	687a      	ldr	r2, [r7, #4]
     37e:	683b      	ldr	r3, [r7, #0]
     380:	0011      	movs	r1, r2
     382:	0018      	movs	r0, r3
     384:	f7ff fffe 	bl	0 <peripheral_read>
     388:	46c0      	nop			; (mov r8, r8)
     38a:	46bd      	mov	sp, r7
     38c:	b004      	add	sp, #16
     38e:	bd80      	pop	{r7, pc}
	...

00000398 <execute_next>:
     398:	b5f0      	push	{r4, r5, r6, r7, lr}
     39a:	4cba      	ldr	r4, [pc, #744]	; (684 <execute_next+0x2ec>)
     39c:	44a5      	add	sp, r4
     39e:	af00      	add	r7, sp, #0
     3a0:	6078      	str	r0, [r7, #4]
     3a2:	4bb9      	ldr	r3, [pc, #740]	; (688 <execute_next+0x2f0>)
     3a4:	6bdb      	ldr	r3, [r3, #60]	; 0x3c
     3a6:	3b02      	subs	r3, #2
     3a8:	4ab8      	ldr	r2, [pc, #736]	; (68c <execute_next+0x2f4>)
     3aa:	5cd3      	ldrb	r3, [r2, r3]
     3ac:	b21a      	sxth	r2, r3
     3ae:	4bb6      	ldr	r3, [pc, #728]	; (688 <execute_next+0x2f0>)
     3b0:	6bdb      	ldr	r3, [r3, #60]	; 0x3c
     3b2:	3b01      	subs	r3, #1
     3b4:	49b5      	ldr	r1, [pc, #724]	; (68c <execute_next+0x2f4>)
     3b6:	5ccb      	ldrb	r3, [r1, r3]
     3b8:	021b      	lsls	r3, r3, #8
     3ba:	b21b      	sxth	r3, r3
     3bc:	4313      	orrs	r3, r2
     3be:	b21a      	sxth	r2, r3
     3c0:	48b3      	ldr	r0, [pc, #716]	; (690 <execute_next+0x2f8>)
     3c2:	183b      	adds	r3, r7, r0
     3c4:	801a      	strh	r2, [r3, #0]
     3c6:	4bb0      	ldr	r3, [pc, #704]	; (688 <execute_next+0x2f0>)
     3c8:	6bdb      	ldr	r3, [r3, #60]	; 0x3c
     3ca:	1c9a      	adds	r2, r3, #2
     3cc:	4bae      	ldr	r3, [pc, #696]	; (688 <execute_next+0x2f0>)
     3ce:	63da      	str	r2, [r3, #60]	; 0x3c
     3d0:	687b      	ldr	r3, [r7, #4]
     3d2:	2b00      	cmp	r3, #0
     3d4:	d00a      	beq.n	3ec <execute_next+0x54>
     3d6:	4bac      	ldr	r3, [pc, #688]	; (688 <execute_next+0x2f0>)
     3d8:	6bdb      	ldr	r3, [r3, #60]	; 0x3c
     3da:	1f19      	subs	r1, r3, #4
     3dc:	183b      	adds	r3, r7, r0
     3de:	881a      	ldrh	r2, [r3, #0]
     3e0:	4bac      	ldr	r3, [pc, #688]	; (694 <execute_next+0x2fc>)
     3e2:	0018      	movs	r0, r3
     3e4:	f7ff fffe 	bl	0 <printf>
     3e8:	f7ff fffe 	bl	2e78 <debug_dialog>
     3ec:	4ba8      	ldr	r3, [pc, #672]	; (690 <execute_next+0x2f8>)
     3ee:	18fb      	adds	r3, r7, r3
     3f0:	881a      	ldrh	r2, [r3, #0]
     3f2:	23de      	movs	r3, #222	; 0xde
     3f4:	021b      	lsls	r3, r3, #8
     3f6:	429a      	cmp	r2, r3
     3f8:	d104      	bne.n	404 <execute_next+0x6c>
     3fa:	f7ff fffe 	bl	2e78 <debug_dialog>
     3fe:	2300      	movs	r3, #0
     400:	f002 fd2a 	bl	2e58 <execute_next+0x2ac0>
     404:	4ba2      	ldr	r3, [pc, #648]	; (690 <execute_next+0x2f8>)
     406:	18fb      	adds	r3, r7, r3
     408:	881b      	ldrh	r3, [r3, #0]
     40a:	4aa3      	ldr	r2, [pc, #652]	; (698 <execute_next+0x300>)
     40c:	4293      	cmp	r3, r2
     40e:	d130      	bne.n	472 <execute_next+0xda>
     410:	4ba2      	ldr	r3, [pc, #648]	; (69c <execute_next+0x304>)
     412:	681b      	ldr	r3, [r3, #0]
     414:	1c5a      	adds	r2, r3, #1
     416:	4ba1      	ldr	r3, [pc, #644]	; (69c <execute_next+0x304>)
     418:	601a      	str	r2, [r3, #0]
     41a:	4ba0      	ldr	r3, [pc, #640]	; (69c <execute_next+0x304>)
     41c:	681b      	ldr	r3, [r3, #0]
     41e:	2b3b      	cmp	r3, #59	; 0x3b
     420:	d924      	bls.n	46c <execute_next+0xd4>
     422:	f7ff fffe 	bl	0 <clock>
     426:	0003      	movs	r3, r0
     428:	617b      	str	r3, [r7, #20]
     42a:	4b9d      	ldr	r3, [pc, #628]	; (6a0 <execute_next+0x308>)
     42c:	681b      	ldr	r3, [r3, #0]
     42e:	697a      	ldr	r2, [r7, #20]
     430:	1ad3      	subs	r3, r2, r3
     432:	0018      	movs	r0, r3
     434:	f7ff fffe 	bl	0 <__aeabi_ui2d>
     438:	2200      	movs	r2, #0
     43a:	4b9a      	ldr	r3, [pc, #616]	; (6a4 <execute_next+0x30c>)
     43c:	f7ff fffe 	bl	0 <__aeabi_ddiv>
     440:	0002      	movs	r2, r0
     442:	000b      	movs	r3, r1
     444:	60ba      	str	r2, [r7, #8]
     446:	60fb      	str	r3, [r7, #12]
     448:	4b95      	ldr	r3, [pc, #596]	; (6a0 <execute_next+0x308>)
     44a:	697a      	ldr	r2, [r7, #20]
     44c:	601a      	str	r2, [r3, #0]
     44e:	68ba      	ldr	r2, [r7, #8]
     450:	68fb      	ldr	r3, [r7, #12]
     452:	2000      	movs	r0, #0
     454:	4994      	ldr	r1, [pc, #592]	; (6a8 <execute_next+0x310>)
     456:	f7ff fffe 	bl	0 <__aeabi_ddiv>
     45a:	0002      	movs	r2, r0
     45c:	000b      	movs	r3, r1
     45e:	4993      	ldr	r1, [pc, #588]	; (6ac <execute_next+0x314>)
     460:	0008      	movs	r0, r1
     462:	f7ff fffe 	bl	0 <printf>
     466:	4b8d      	ldr	r3, [pc, #564]	; (69c <execute_next+0x304>)
     468:	2200      	movs	r2, #0
     46a:	601a      	str	r2, [r3, #0]
     46c:	2300      	movs	r3, #0
     46e:	f002 fcf3 	bl	2e58 <execute_next+0x2ac0>
     472:	4887      	ldr	r0, [pc, #540]	; (690 <execute_next+0x2f8>)
     474:	183b      	adds	r3, r7, r0
     476:	881b      	ldrh	r3, [r3, #0]
     478:	0adb      	lsrs	r3, r3, #11
     47a:	b29b      	uxth	r3, r3
     47c:	001a      	movs	r2, r3
     47e:	231f      	movs	r3, #31
     480:	4013      	ands	r3, r2
     482:	d000      	beq.n	486 <execute_next+0xee>
     484:	e079      	b.n	57a <execute_next+0x1e2>
     486:	183b      	adds	r3, r7, r0
     488:	881b      	ldrh	r3, [r3, #0]
     48a:	099b      	lsrs	r3, r3, #6
     48c:	b29b      	uxth	r3, r3
     48e:	b2da      	uxtb	r2, r3
     490:	4b87      	ldr	r3, [pc, #540]	; (6b0 <execute_next+0x318>)
     492:	21b2      	movs	r1, #178	; 0xb2
     494:	0089      	lsls	r1, r1, #2
     496:	468c      	mov	ip, r1
     498:	44bc      	add	ip, r7
     49a:	4463      	add	r3, ip
     49c:	211f      	movs	r1, #31
     49e:	400a      	ands	r2, r1
     4a0:	701a      	strb	r2, [r3, #0]
     4a2:	183b      	adds	r3, r7, r0
     4a4:	881b      	ldrh	r3, [r3, #0]
     4a6:	08db      	lsrs	r3, r3, #3
     4a8:	b29b      	uxth	r3, r3
     4aa:	b2da      	uxtb	r2, r3
     4ac:	4b81      	ldr	r3, [pc, #516]	; (6b4 <execute_next+0x31c>)
     4ae:	21b2      	movs	r1, #178	; 0xb2
     4b0:	0089      	lsls	r1, r1, #2
     4b2:	468c      	mov	ip, r1
     4b4:	44bc      	add	ip, r7
     4b6:	4463      	add	r3, ip
     4b8:	2107      	movs	r1, #7
     4ba:	400a      	ands	r2, r1
     4bc:	701a      	strb	r2, [r3, #0]
     4be:	183b      	adds	r3, r7, r0
     4c0:	881b      	ldrh	r3, [r3, #0]
     4c2:	b2da      	uxtb	r2, r3
     4c4:	4b7c      	ldr	r3, [pc, #496]	; (6b8 <execute_next+0x320>)
     4c6:	21b2      	movs	r1, #178	; 0xb2
     4c8:	0089      	lsls	r1, r1, #2
     4ca:	468c      	mov	ip, r1
     4cc:	44bc      	add	ip, r7
     4ce:	4463      	add	r3, ip
     4d0:	2107      	movs	r1, #7
     4d2:	400a      	ands	r2, r1
     4d4:	701a      	strb	r2, [r3, #0]
     4d6:	4b77      	ldr	r3, [pc, #476]	; (6b4 <execute_next+0x31c>)
     4d8:	22b2      	movs	r2, #178	; 0xb2
     4da:	0092      	lsls	r2, r2, #2
     4dc:	4694      	mov	ip, r2
     4de:	44bc      	add	ip, r7
     4e0:	4463      	add	r3, ip
     4e2:	781a      	ldrb	r2, [r3, #0]
     4e4:	4b68      	ldr	r3, [pc, #416]	; (688 <execute_next+0x2f0>)
     4e6:	0092      	lsls	r2, r2, #2
     4e8:	58d3      	ldr	r3, [r2, r3]
     4ea:	623b      	str	r3, [r7, #32]
     4ec:	4b70      	ldr	r3, [pc, #448]	; (6b0 <execute_next+0x318>)
     4ee:	22b2      	movs	r2, #178	; 0xb2
     4f0:	0092      	lsls	r2, r2, #2
     4f2:	4694      	mov	ip, r2
     4f4:	44bc      	add	ip, r7
     4f6:	4463      	add	r3, ip
     4f8:	781b      	ldrb	r3, [r3, #0]
     4fa:	221f      	movs	r2, #31
     4fc:	1ad3      	subs	r3, r2, r3
     4fe:	6a3a      	ldr	r2, [r7, #32]
     500:	40da      	lsrs	r2, r3
     502:	0013      	movs	r3, r2
     504:	001a      	movs	r2, r3
     506:	2301      	movs	r3, #1
     508:	4013      	ands	r3, r2
     50a:	61fb      	str	r3, [r7, #28]
     50c:	4b68      	ldr	r3, [pc, #416]	; (6b0 <execute_next+0x318>)
     50e:	22b2      	movs	r2, #178	; 0xb2
     510:	0092      	lsls	r2, r2, #2
     512:	4694      	mov	ip, r2
     514:	44bc      	add	ip, r7
     516:	4463      	add	r3, ip
     518:	781b      	ldrb	r3, [r3, #0]
     51a:	6a3a      	ldr	r2, [r7, #32]
     51c:	409a      	lsls	r2, r3
     51e:	0013      	movs	r3, r2
     520:	61bb      	str	r3, [r7, #24]
     522:	4b65      	ldr	r3, [pc, #404]	; (6b8 <execute_next+0x320>)
     524:	22b2      	movs	r2, #178	; 0xb2
     526:	0092      	lsls	r2, r2, #2
     528:	4694      	mov	ip, r2
     52a:	44bc      	add	ip, r7
     52c:	4463      	add	r3, ip
     52e:	781a      	ldrb	r2, [r3, #0]
     530:	69b9      	ldr	r1, [r7, #24]
     532:	4b55      	ldr	r3, [pc, #340]	; (688 <execute_next+0x2f0>)
     534:	0092      	lsls	r2, r2, #2
     536:	50d1      	str	r1, [r2, r3]
     538:	69bb      	ldr	r3, [r7, #24]
     53a:	0018      	movs	r0, r3
     53c:	f7ff fffe 	bl	ec <update_nz_flags>
     540:	4b5b      	ldr	r3, [pc, #364]	; (6b0 <execute_next+0x318>)
     542:	22b2      	movs	r2, #178	; 0xb2
     544:	0092      	lsls	r2, r2, #2
     546:	4694      	mov	ip, r2
     548:	44bc      	add	ip, r7
     54a:	4463      	add	r3, ip
     54c:	781b      	ldrb	r3, [r3, #0]
     54e:	2b00      	cmp	r3, #0
     550:	d010      	beq.n	574 <execute_next+0x1dc>
     552:	69fb      	ldr	r3, [r7, #28]
     554:	2b00      	cmp	r3, #0
     556:	d007      	beq.n	568 <execute_next+0x1d0>
     558:	4b4b      	ldr	r3, [pc, #300]	; (688 <execute_next+0x2f0>)
     55a:	6c1b      	ldr	r3, [r3, #64]	; 0x40
     55c:	2280      	movs	r2, #128	; 0x80
     55e:	0592      	lsls	r2, r2, #22
     560:	431a      	orrs	r2, r3
     562:	4b49      	ldr	r3, [pc, #292]	; (688 <execute_next+0x2f0>)
     564:	641a      	str	r2, [r3, #64]	; 0x40
     566:	e005      	b.n	574 <execute_next+0x1dc>
     568:	4b47      	ldr	r3, [pc, #284]	; (688 <execute_next+0x2f0>)
     56a:	6c1b      	ldr	r3, [r3, #64]	; 0x40
     56c:	4a53      	ldr	r2, [pc, #332]	; (6bc <execute_next+0x324>)
     56e:	401a      	ands	r2, r3
     570:	4b45      	ldr	r3, [pc, #276]	; (688 <execute_next+0x2f0>)
     572:	641a      	str	r2, [r3, #64]	; 0x40
     574:	2300      	movs	r3, #0
     576:	f002 fc6f 	bl	2e58 <execute_next+0x2ac0>
     57a:	4845      	ldr	r0, [pc, #276]	; (690 <execute_next+0x2f8>)
     57c:	183b      	adds	r3, r7, r0
     57e:	881b      	ldrh	r3, [r3, #0]
     580:	0adb      	lsrs	r3, r3, #11
     582:	b29b      	uxth	r3, r3
     584:	001a      	movs	r2, r3
     586:	231f      	movs	r3, #31
     588:	4013      	ands	r3, r2
     58a:	2b01      	cmp	r3, #1
     58c:	d000      	beq.n	590 <execute_next+0x1f8>
     58e:	e09d      	b.n	6cc <execute_next+0x334>
     590:	183b      	adds	r3, r7, r0
     592:	881b      	ldrh	r3, [r3, #0]
     594:	099b      	lsrs	r3, r3, #6
     596:	b29b      	uxth	r3, r3
     598:	b2da      	uxtb	r2, r3
     59a:	4b49      	ldr	r3, [pc, #292]	; (6c0 <execute_next+0x328>)
     59c:	21b2      	movs	r1, #178	; 0xb2
     59e:	0089      	lsls	r1, r1, #2
     5a0:	468c      	mov	ip, r1
     5a2:	44bc      	add	ip, r7
     5a4:	4463      	add	r3, ip
     5a6:	211f      	movs	r1, #31
     5a8:	400a      	ands	r2, r1
     5aa:	701a      	strb	r2, [r3, #0]
     5ac:	183b      	adds	r3, r7, r0
     5ae:	881b      	ldrh	r3, [r3, #0]
     5b0:	08db      	lsrs	r3, r3, #3
     5b2:	b29b      	uxth	r3, r3
     5b4:	b2da      	uxtb	r2, r3
     5b6:	4b43      	ldr	r3, [pc, #268]	; (6c4 <execute_next+0x32c>)
     5b8:	21b2      	movs	r1, #178	; 0xb2
     5ba:	0089      	lsls	r1, r1, #2
     5bc:	468c      	mov	ip, r1
     5be:	44bc      	add	ip, r7
     5c0:	4463      	add	r3, ip
     5c2:	2107      	movs	r1, #7
     5c4:	400a      	ands	r2, r1
     5c6:	701a      	strb	r2, [r3, #0]
     5c8:	183b      	adds	r3, r7, r0
     5ca:	881b      	ldrh	r3, [r3, #0]
     5cc:	b2da      	uxtb	r2, r3
     5ce:	4b3e      	ldr	r3, [pc, #248]	; (6c8 <execute_next+0x330>)
     5d0:	21b2      	movs	r1, #178	; 0xb2
     5d2:	0089      	lsls	r1, r1, #2
     5d4:	468c      	mov	ip, r1
     5d6:	44bc      	add	ip, r7
     5d8:	4463      	add	r3, ip
     5da:	2107      	movs	r1, #7
     5dc:	400a      	ands	r2, r1
     5de:	701a      	strb	r2, [r3, #0]
     5e0:	4b38      	ldr	r3, [pc, #224]	; (6c4 <execute_next+0x32c>)
     5e2:	22b2      	movs	r2, #178	; 0xb2
     5e4:	0092      	lsls	r2, r2, #2
     5e6:	4694      	mov	ip, r2
     5e8:	44bc      	add	ip, r7
     5ea:	4463      	add	r3, ip
     5ec:	781a      	ldrb	r2, [r3, #0]
     5ee:	4b26      	ldr	r3, [pc, #152]	; (688 <execute_next+0x2f0>)
     5f0:	0092      	lsls	r2, r2, #2
     5f2:	58d3      	ldr	r3, [r2, r3]
     5f4:	633b      	str	r3, [r7, #48]	; 0x30
     5f6:	4b32      	ldr	r3, [pc, #200]	; (6c0 <execute_next+0x328>)
     5f8:	22b2      	movs	r2, #178	; 0xb2
     5fa:	0092      	lsls	r2, r2, #2
     5fc:	4694      	mov	ip, r2
     5fe:	44bc      	add	ip, r7
     600:	4463      	add	r3, ip
     602:	781b      	ldrb	r3, [r3, #0]
     604:	2b00      	cmp	r3, #0
     606:	d01f      	beq.n	648 <execute_next+0x2b0>
     608:	4b2d      	ldr	r3, [pc, #180]	; (6c0 <execute_next+0x328>)
     60a:	22b2      	movs	r2, #178	; 0xb2
     60c:	0092      	lsls	r2, r2, #2
     60e:	4694      	mov	ip, r2
     610:	44bc      	add	ip, r7
     612:	4463      	add	r3, ip
     614:	781b      	ldrb	r3, [r3, #0]
     616:	3b01      	subs	r3, #1
     618:	6b3a      	ldr	r2, [r7, #48]	; 0x30
     61a:	40da      	lsrs	r2, r3
     61c:	0013      	movs	r3, r2
     61e:	001a      	movs	r2, r3
     620:	2301      	movs	r3, #1
     622:	4013      	ands	r3, r2
     624:	62fb      	str	r3, [r7, #44]	; 0x2c
     626:	6afb      	ldr	r3, [r7, #44]	; 0x2c
     628:	2b00      	cmp	r3, #0
     62a:	d007      	beq.n	63c <execute_next+0x2a4>
     62c:	4b16      	ldr	r3, [pc, #88]	; (688 <execute_next+0x2f0>)
     62e:	6c1b      	ldr	r3, [r3, #64]	; 0x40
     630:	2280      	movs	r2, #128	; 0x80
     632:	0592      	lsls	r2, r2, #22
     634:	431a      	orrs	r2, r3
     636:	4b14      	ldr	r3, [pc, #80]	; (688 <execute_next+0x2f0>)
     638:	641a      	str	r2, [r3, #64]	; 0x40
     63a:	e005      	b.n	648 <execute_next+0x2b0>
     63c:	4b12      	ldr	r3, [pc, #72]	; (688 <execute_next+0x2f0>)
     63e:	6c1b      	ldr	r3, [r3, #64]	; 0x40
     640:	4a1e      	ldr	r2, [pc, #120]	; (6bc <execute_next+0x324>)
     642:	401a      	ands	r2, r3
     644:	4b10      	ldr	r3, [pc, #64]	; (688 <execute_next+0x2f0>)
     646:	641a      	str	r2, [r3, #64]	; 0x40
     648:	4b1d      	ldr	r3, [pc, #116]	; (6c0 <execute_next+0x328>)
     64a:	22b2      	movs	r2, #178	; 0xb2
     64c:	0092      	lsls	r2, r2, #2
     64e:	4694      	mov	ip, r2
     650:	44bc      	add	ip, r7
     652:	4463      	add	r3, ip
     654:	781b      	ldrb	r3, [r3, #0]
     656:	6b3a      	ldr	r2, [r7, #48]	; 0x30
     658:	40da      	lsrs	r2, r3
     65a:	0013      	movs	r3, r2
     65c:	62bb      	str	r3, [r7, #40]	; 0x28
     65e:	4b1a      	ldr	r3, [pc, #104]	; (6c8 <execute_next+0x330>)
     660:	22b2      	movs	r2, #178	; 0xb2
     662:	0092      	lsls	r2, r2, #2
     664:	4694      	mov	ip, r2
     666:	44bc      	add	ip, r7
     668:	4463      	add	r3, ip
     66a:	781a      	ldrb	r2, [r3, #0]
     66c:	6ab9      	ldr	r1, [r7, #40]	; 0x28
     66e:	4b06      	ldr	r3, [pc, #24]	; (688 <execute_next+0x2f0>)
     670:	0092      	lsls	r2, r2, #2
     672:	50d1      	str	r1, [r2, r3]
     674:	6abb      	ldr	r3, [r7, #40]	; 0x28
     676:	0018      	movs	r0, r3
     678:	f7ff fffe 	bl	ec <update_nz_flags>
     67c:	2300      	movs	r3, #0
     67e:	f002 fbeb 	bl	2e58 <execute_next+0x2ac0>
     682:	46c0      	nop			; (mov r8, r8)
     684:	fffffd34 	.word	0xfffffd34
	...
     690:	000002a6 	.word	0x000002a6
     694:	0000004c 	.word	0x0000004c
     698:	0000de01 	.word	0x0000de01
	...
     6a4:	40590000 	.word	0x40590000
     6a8:	404e0000 	.word	0x404e0000
     6ac:	0000006c 	.word	0x0000006c
     6b0:	fffffd5f 	.word	0xfffffd5f
     6b4:	fffffd5e 	.word	0xfffffd5e
     6b8:	fffffd5d 	.word	0xfffffd5d
     6bc:	dfffffff 	.word	0xdfffffff
     6c0:	fffffd6f 	.word	0xfffffd6f
     6c4:	fffffd6e 	.word	0xfffffd6e
     6c8:	fffffd6d 	.word	0xfffffd6d
     6cc:	48d8      	ldr	r0, [pc, #864]	; (a30 <execute_next+0x698>)
     6ce:	183b      	adds	r3, r7, r0
     6d0:	881b      	ldrh	r3, [r3, #0]
     6d2:	0adb      	lsrs	r3, r3, #11
     6d4:	b29b      	uxth	r3, r3
     6d6:	001a      	movs	r2, r3
     6d8:	231f      	movs	r3, #31
     6da:	4013      	ands	r3, r2
     6dc:	2b02      	cmp	r3, #2
     6de:	d000      	beq.n	6e2 <execute_next+0x34a>
     6e0:	e078      	b.n	7d4 <execute_next+0x43c>
     6e2:	183b      	adds	r3, r7, r0
     6e4:	881b      	ldrh	r3, [r3, #0]
     6e6:	099b      	lsrs	r3, r3, #6
     6e8:	b29b      	uxth	r3, r3
     6ea:	b2da      	uxtb	r2, r3
     6ec:	4bd1      	ldr	r3, [pc, #836]	; (a34 <execute_next+0x69c>)
     6ee:	21b2      	movs	r1, #178	; 0xb2
     6f0:	0089      	lsls	r1, r1, #2
     6f2:	468c      	mov	ip, r1
     6f4:	44bc      	add	ip, r7
     6f6:	4463      	add	r3, ip
     6f8:	211f      	movs	r1, #31
     6fa:	400a      	ands	r2, r1
     6fc:	701a      	strb	r2, [r3, #0]
     6fe:	183b      	adds	r3, r7, r0
     700:	881b      	ldrh	r3, [r3, #0]
     702:	08db      	lsrs	r3, r3, #3
     704:	b29b      	uxth	r3, r3
     706:	b2da      	uxtb	r2, r3
     708:	4bcb      	ldr	r3, [pc, #812]	; (a38 <execute_next+0x6a0>)
     70a:	21b2      	movs	r1, #178	; 0xb2
     70c:	0089      	lsls	r1, r1, #2
     70e:	468c      	mov	ip, r1
     710:	44bc      	add	ip, r7
     712:	4463      	add	r3, ip
     714:	2107      	movs	r1, #7
     716:	400a      	ands	r2, r1
     718:	701a      	strb	r2, [r3, #0]
     71a:	183b      	adds	r3, r7, r0
     71c:	881b      	ldrh	r3, [r3, #0]
     71e:	b2da      	uxtb	r2, r3
     720:	4bc6      	ldr	r3, [pc, #792]	; (a3c <execute_next+0x6a4>)
     722:	21b2      	movs	r1, #178	; 0xb2
     724:	0089      	lsls	r1, r1, #2
     726:	468c      	mov	ip, r1
     728:	44bc      	add	ip, r7
     72a:	4463      	add	r3, ip
     72c:	2107      	movs	r1, #7
     72e:	400a      	ands	r2, r1
     730:	701a      	strb	r2, [r3, #0]
     732:	4bc1      	ldr	r3, [pc, #772]	; (a38 <execute_next+0x6a0>)
     734:	22b2      	movs	r2, #178	; 0xb2
     736:	0092      	lsls	r2, r2, #2
     738:	4694      	mov	ip, r2
     73a:	44bc      	add	ip, r7
     73c:	4463      	add	r3, ip
     73e:	781a      	ldrb	r2, [r3, #0]
     740:	4bbf      	ldr	r3, [pc, #764]	; (a40 <execute_next+0x6a8>)
     742:	0092      	lsls	r2, r2, #2
     744:	58d3      	ldr	r3, [r2, r3]
     746:	643b      	str	r3, [r7, #64]	; 0x40
     748:	4bba      	ldr	r3, [pc, #744]	; (a34 <execute_next+0x69c>)
     74a:	22b2      	movs	r2, #178	; 0xb2
     74c:	0092      	lsls	r2, r2, #2
     74e:	4694      	mov	ip, r2
     750:	44bc      	add	ip, r7
     752:	4463      	add	r3, ip
     754:	781b      	ldrb	r3, [r3, #0]
     756:	221f      	movs	r2, #31
     758:	1ad3      	subs	r3, r2, r3
     75a:	6c3a      	ldr	r2, [r7, #64]	; 0x40
     75c:	411a      	asrs	r2, r3
     75e:	0013      	movs	r3, r2
     760:	2201      	movs	r2, #1
     762:	4013      	ands	r3, r2
     764:	63fb      	str	r3, [r7, #60]	; 0x3c
     766:	4bb3      	ldr	r3, [pc, #716]	; (a34 <execute_next+0x69c>)
     768:	22b2      	movs	r2, #178	; 0xb2
     76a:	0092      	lsls	r2, r2, #2
     76c:	4694      	mov	ip, r2
     76e:	44bc      	add	ip, r7
     770:	4463      	add	r3, ip
     772:	781b      	ldrb	r3, [r3, #0]
     774:	6c3a      	ldr	r2, [r7, #64]	; 0x40
     776:	411a      	asrs	r2, r3
     778:	0013      	movs	r3, r2
     77a:	63bb      	str	r3, [r7, #56]	; 0x38
     77c:	4baf      	ldr	r3, [pc, #700]	; (a3c <execute_next+0x6a4>)
     77e:	22b2      	movs	r2, #178	; 0xb2
     780:	0092      	lsls	r2, r2, #2
     782:	4694      	mov	ip, r2
     784:	44bc      	add	ip, r7
     786:	4463      	add	r3, ip
     788:	781a      	ldrb	r2, [r3, #0]
     78a:	4bad      	ldr	r3, [pc, #692]	; (a40 <execute_next+0x6a8>)
     78c:	0092      	lsls	r2, r2, #2
     78e:	6bb9      	ldr	r1, [r7, #56]	; 0x38
     790:	50d1      	str	r1, [r2, r3]
     792:	6bbb      	ldr	r3, [r7, #56]	; 0x38
     794:	0018      	movs	r0, r3
     796:	f7ff fffe 	bl	ec <update_nz_flags>
     79a:	4ba6      	ldr	r3, [pc, #664]	; (a34 <execute_next+0x69c>)
     79c:	22b2      	movs	r2, #178	; 0xb2
     79e:	0092      	lsls	r2, r2, #2
     7a0:	4694      	mov	ip, r2
     7a2:	44bc      	add	ip, r7
     7a4:	4463      	add	r3, ip
     7a6:	781b      	ldrb	r3, [r3, #0]
     7a8:	2b00      	cmp	r3, #0
     7aa:	d010      	beq.n	7ce <execute_next+0x436>
     7ac:	6bfb      	ldr	r3, [r7, #60]	; 0x3c
     7ae:	2b00      	cmp	r3, #0
     7b0:	d007      	beq.n	7c2 <execute_next+0x42a>
     7b2:	4ba3      	ldr	r3, [pc, #652]	; (a40 <execute_next+0x6a8>)
     7b4:	6c1b      	ldr	r3, [r3, #64]	; 0x40
     7b6:	2280      	movs	r2, #128	; 0x80
     7b8:	0592      	lsls	r2, r2, #22
     7ba:	431a      	orrs	r2, r3
     7bc:	4ba0      	ldr	r3, [pc, #640]	; (a40 <execute_next+0x6a8>)
     7be:	641a      	str	r2, [r3, #64]	; 0x40
     7c0:	e005      	b.n	7ce <execute_next+0x436>
     7c2:	4b9f      	ldr	r3, [pc, #636]	; (a40 <execute_next+0x6a8>)
     7c4:	6c1b      	ldr	r3, [r3, #64]	; 0x40
     7c6:	4a9f      	ldr	r2, [pc, #636]	; (a44 <execute_next+0x6ac>)
     7c8:	401a      	ands	r2, r3
     7ca:	4b9d      	ldr	r3, [pc, #628]	; (a40 <execute_next+0x6a8>)
     7cc:	641a      	str	r2, [r3, #64]	; 0x40
     7ce:	2300      	movs	r3, #0
     7d0:	f002 fb42 	bl	2e58 <execute_next+0x2ac0>
     7d4:	4896      	ldr	r0, [pc, #600]	; (a30 <execute_next+0x698>)
     7d6:	183b      	adds	r3, r7, r0
     7d8:	881b      	ldrh	r3, [r3, #0]
     7da:	0a5b      	lsrs	r3, r3, #9
     7dc:	b29b      	uxth	r3, r3
     7de:	001a      	movs	r2, r3
     7e0:	237f      	movs	r3, #127	; 0x7f
     7e2:	4013      	ands	r3, r2
     7e4:	2b0c      	cmp	r3, #12
     7e6:	d159      	bne.n	89c <execute_next+0x504>
     7e8:	183b      	adds	r3, r7, r0
     7ea:	881b      	ldrh	r3, [r3, #0]
     7ec:	099b      	lsrs	r3, r3, #6
     7ee:	b29b      	uxth	r3, r3
     7f0:	b2da      	uxtb	r2, r3
     7f2:	4b95      	ldr	r3, [pc, #596]	; (a48 <execute_next+0x6b0>)
     7f4:	21b2      	movs	r1, #178	; 0xb2
     7f6:	0089      	lsls	r1, r1, #2
     7f8:	468c      	mov	ip, r1
     7fa:	44bc      	add	ip, r7
     7fc:	4463      	add	r3, ip
     7fe:	2107      	movs	r1, #7
     800:	400a      	ands	r2, r1
     802:	701a      	strb	r2, [r3, #0]
     804:	183b      	adds	r3, r7, r0
     806:	881b      	ldrh	r3, [r3, #0]
     808:	08db      	lsrs	r3, r3, #3
     80a:	b29b      	uxth	r3, r3
     80c:	b2da      	uxtb	r2, r3
     80e:	4b8f      	ldr	r3, [pc, #572]	; (a4c <execute_next+0x6b4>)
     810:	21b2      	movs	r1, #178	; 0xb2
     812:	0089      	lsls	r1, r1, #2
     814:	468c      	mov	ip, r1
     816:	44bc      	add	ip, r7
     818:	4463      	add	r3, ip
     81a:	2107      	movs	r1, #7
     81c:	400a      	ands	r2, r1
     81e:	701a      	strb	r2, [r3, #0]
     820:	183b      	adds	r3, r7, r0
     822:	881b      	ldrh	r3, [r3, #0]
     824:	b2da      	uxtb	r2, r3
     826:	4b8a      	ldr	r3, [pc, #552]	; (a50 <execute_next+0x6b8>)
     828:	21b2      	movs	r1, #178	; 0xb2
     82a:	0089      	lsls	r1, r1, #2
     82c:	468c      	mov	ip, r1
     82e:	44bc      	add	ip, r7
     830:	4463      	add	r3, ip
     832:	2107      	movs	r1, #7
     834:	400a      	ands	r2, r1
     836:	701a      	strb	r2, [r3, #0]
     838:	4b84      	ldr	r3, [pc, #528]	; (a4c <execute_next+0x6b4>)
     83a:	22b2      	movs	r2, #178	; 0xb2
     83c:	0092      	lsls	r2, r2, #2
     83e:	4694      	mov	ip, r2
     840:	44bc      	add	ip, r7
     842:	4463      	add	r3, ip
     844:	781a      	ldrb	r2, [r3, #0]
     846:	4b7e      	ldr	r3, [pc, #504]	; (a40 <execute_next+0x6a8>)
     848:	0092      	lsls	r2, r2, #2
     84a:	58d3      	ldr	r3, [r2, r3]
     84c:	653b      	str	r3, [r7, #80]	; 0x50
     84e:	4b7e      	ldr	r3, [pc, #504]	; (a48 <execute_next+0x6b0>)
     850:	22b2      	movs	r2, #178	; 0xb2
     852:	0092      	lsls	r2, r2, #2
     854:	4694      	mov	ip, r2
     856:	44bc      	add	ip, r7
     858:	4463      	add	r3, ip
     85a:	781a      	ldrb	r2, [r3, #0]
     85c:	4b78      	ldr	r3, [pc, #480]	; (a40 <execute_next+0x6a8>)
     85e:	0092      	lsls	r2, r2, #2
     860:	58d3      	ldr	r3, [r2, r3]
     862:	64fb      	str	r3, [r7, #76]	; 0x4c
     864:	6d3a      	ldr	r2, [r7, #80]	; 0x50
     866:	6cfb      	ldr	r3, [r7, #76]	; 0x4c
     868:	18d3      	adds	r3, r2, r3
     86a:	64bb      	str	r3, [r7, #72]	; 0x48
     86c:	4b78      	ldr	r3, [pc, #480]	; (a50 <execute_next+0x6b8>)
     86e:	22b2      	movs	r2, #178	; 0xb2
     870:	0092      	lsls	r2, r2, #2
     872:	4694      	mov	ip, r2
     874:	44bc      	add	ip, r7
     876:	4463      	add	r3, ip
     878:	781a      	ldrb	r2, [r3, #0]
     87a:	6cb9      	ldr	r1, [r7, #72]	; 0x48
     87c:	4b70      	ldr	r3, [pc, #448]	; (a40 <execute_next+0x6a8>)
     87e:	0092      	lsls	r2, r2, #2
     880:	50d1      	str	r1, [r2, r3]
     882:	6cbb      	ldr	r3, [r7, #72]	; 0x48
     884:	0018      	movs	r0, r3
     886:	f7ff fffe 	bl	ec <update_nz_flags>
     88a:	6d3b      	ldr	r3, [r7, #80]	; 0x50
     88c:	6cf9      	ldr	r1, [r7, #76]	; 0x4c
     88e:	6cba      	ldr	r2, [r7, #72]	; 0x48
     890:	0018      	movs	r0, r3
     892:	f7ff fffe 	bl	148 <update_vc_flags_in_addition>
     896:	2300      	movs	r3, #0
     898:	f002 fade 	bl	2e58 <execute_next+0x2ac0>
     89c:	4864      	ldr	r0, [pc, #400]	; (a30 <execute_next+0x698>)
     89e:	183b      	adds	r3, r7, r0
     8a0:	881b      	ldrh	r3, [r3, #0]
     8a2:	0a5b      	lsrs	r3, r3, #9
     8a4:	b29b      	uxth	r3, r3
     8a6:	001a      	movs	r2, r3
     8a8:	237f      	movs	r3, #127	; 0x7f
     8aa:	4013      	ands	r3, r2
     8ac:	2b0d      	cmp	r3, #13
     8ae:	d159      	bne.n	964 <execute_next+0x5cc>
     8b0:	183b      	adds	r3, r7, r0
     8b2:	881b      	ldrh	r3, [r3, #0]
     8b4:	099b      	lsrs	r3, r3, #6
     8b6:	b29b      	uxth	r3, r3
     8b8:	b2da      	uxtb	r2, r3
     8ba:	4b66      	ldr	r3, [pc, #408]	; (a54 <execute_next+0x6bc>)
     8bc:	21b2      	movs	r1, #178	; 0xb2
     8be:	0089      	lsls	r1, r1, #2
     8c0:	468c      	mov	ip, r1
     8c2:	44bc      	add	ip, r7
     8c4:	4463      	add	r3, ip
     8c6:	2107      	movs	r1, #7
     8c8:	400a      	ands	r2, r1
     8ca:	701a      	strb	r2, [r3, #0]
     8cc:	183b      	adds	r3, r7, r0
     8ce:	881b      	ldrh	r3, [r3, #0]
     8d0:	08db      	lsrs	r3, r3, #3
     8d2:	b29b      	uxth	r3, r3
     8d4:	b2da      	uxtb	r2, r3
     8d6:	4b60      	ldr	r3, [pc, #384]	; (a58 <execute_next+0x6c0>)
     8d8:	21b2      	movs	r1, #178	; 0xb2
     8da:	0089      	lsls	r1, r1, #2
     8dc:	468c      	mov	ip, r1
     8de:	44bc      	add	ip, r7
     8e0:	4463      	add	r3, ip
     8e2:	2107      	movs	r1, #7
     8e4:	400a      	ands	r2, r1
     8e6:	701a      	strb	r2, [r3, #0]
     8e8:	183b      	adds	r3, r7, r0
     8ea:	881b      	ldrh	r3, [r3, #0]
     8ec:	b2da      	uxtb	r2, r3
     8ee:	4b5b      	ldr	r3, [pc, #364]	; (a5c <execute_next+0x6c4>)
     8f0:	21b2      	movs	r1, #178	; 0xb2
     8f2:	0089      	lsls	r1, r1, #2
     8f4:	468c      	mov	ip, r1
     8f6:	44bc      	add	ip, r7
     8f8:	4463      	add	r3, ip
     8fa:	2107      	movs	r1, #7
     8fc:	400a      	ands	r2, r1
     8fe:	701a      	strb	r2, [r3, #0]
     900:	4b55      	ldr	r3, [pc, #340]	; (a58 <execute_next+0x6c0>)
     902:	22b2      	movs	r2, #178	; 0xb2
     904:	0092      	lsls	r2, r2, #2
     906:	4694      	mov	ip, r2
     908:	44bc      	add	ip, r7
     90a:	4463      	add	r3, ip
     90c:	781a      	ldrb	r2, [r3, #0]
     90e:	4b4c      	ldr	r3, [pc, #304]	; (a40 <execute_next+0x6a8>)
     910:	0092      	lsls	r2, r2, #2
     912:	58d3      	ldr	r3, [r2, r3]
     914:	663b      	str	r3, [r7, #96]	; 0x60
     916:	4b4f      	ldr	r3, [pc, #316]	; (a54 <execute_next+0x6bc>)
     918:	22b2      	movs	r2, #178	; 0xb2
     91a:	0092      	lsls	r2, r2, #2
     91c:	4694      	mov	ip, r2
     91e:	44bc      	add	ip, r7
     920:	4463      	add	r3, ip
     922:	781a      	ldrb	r2, [r3, #0]
     924:	4b46      	ldr	r3, [pc, #280]	; (a40 <execute_next+0x6a8>)
     926:	0092      	lsls	r2, r2, #2
     928:	58d3      	ldr	r3, [r2, r3]
     92a:	65fb      	str	r3, [r7, #92]	; 0x5c
     92c:	6e3a      	ldr	r2, [r7, #96]	; 0x60
     92e:	6dfb      	ldr	r3, [r7, #92]	; 0x5c
     930:	1ad3      	subs	r3, r2, r3
     932:	65bb      	str	r3, [r7, #88]	; 0x58
     934:	4b49      	ldr	r3, [pc, #292]	; (a5c <execute_next+0x6c4>)
     936:	22b2      	movs	r2, #178	; 0xb2
     938:	0092      	lsls	r2, r2, #2
     93a:	4694      	mov	ip, r2
     93c:	44bc      	add	ip, r7
     93e:	4463      	add	r3, ip
     940:	781a      	ldrb	r2, [r3, #0]
     942:	6db9      	ldr	r1, [r7, #88]	; 0x58
     944:	4b3e      	ldr	r3, [pc, #248]	; (a40 <execute_next+0x6a8>)
     946:	0092      	lsls	r2, r2, #2
     948:	50d1      	str	r1, [r2, r3]
     94a:	6dbb      	ldr	r3, [r7, #88]	; 0x58
     94c:	0018      	movs	r0, r3
     94e:	f7ff fffe 	bl	ec <update_nz_flags>
     952:	6e3b      	ldr	r3, [r7, #96]	; 0x60
     954:	6df9      	ldr	r1, [r7, #92]	; 0x5c
     956:	6dba      	ldr	r2, [r7, #88]	; 0x58
     958:	0018      	movs	r0, r3
     95a:	f7ff fffe 	bl	1e0 <update_vc_flags_in_subtraction>
     95e:	2300      	movs	r3, #0
     960:	f002 fa7a 	bl	2e58 <execute_next+0x2ac0>
     964:	4832      	ldr	r0, [pc, #200]	; (a30 <execute_next+0x698>)
     966:	183b      	adds	r3, r7, r0
     968:	881b      	ldrh	r3, [r3, #0]
     96a:	0a5b      	lsrs	r3, r3, #9
     96c:	b29b      	uxth	r3, r3
     96e:	001a      	movs	r2, r3
     970:	237f      	movs	r3, #127	; 0x7f
     972:	4013      	ands	r3, r2
     974:	2b0e      	cmp	r3, #14
     976:	d179      	bne.n	a6c <execute_next+0x6d4>
     978:	183b      	adds	r3, r7, r0
     97a:	881b      	ldrh	r3, [r3, #0]
     97c:	099b      	lsrs	r3, r3, #6
     97e:	b29b      	uxth	r3, r3
     980:	b2da      	uxtb	r2, r3
     982:	4b37      	ldr	r3, [pc, #220]	; (a60 <execute_next+0x6c8>)
     984:	21b2      	movs	r1, #178	; 0xb2
     986:	0089      	lsls	r1, r1, #2
     988:	468c      	mov	ip, r1
     98a:	44bc      	add	ip, r7
     98c:	4463      	add	r3, ip
     98e:	2107      	movs	r1, #7
     990:	400a      	ands	r2, r1
     992:	701a      	strb	r2, [r3, #0]
     994:	183b      	adds	r3, r7, r0
     996:	881b      	ldrh	r3, [r3, #0]
     998:	08db      	lsrs	r3, r3, #3
     99a:	b29b      	uxth	r3, r3
     99c:	b2da      	uxtb	r2, r3
     99e:	4b31      	ldr	r3, [pc, #196]	; (a64 <execute_next+0x6cc>)
     9a0:	21b2      	movs	r1, #178	; 0xb2
     9a2:	0089      	lsls	r1, r1, #2
     9a4:	468c      	mov	ip, r1
     9a6:	44bc      	add	ip, r7
     9a8:	4463      	add	r3, ip
     9aa:	2107      	movs	r1, #7
     9ac:	400a      	ands	r2, r1
     9ae:	701a      	strb	r2, [r3, #0]
     9b0:	183b      	adds	r3, r7, r0
     9b2:	881b      	ldrh	r3, [r3, #0]
     9b4:	b2da      	uxtb	r2, r3
     9b6:	4b2c      	ldr	r3, [pc, #176]	; (a68 <execute_next+0x6d0>)
     9b8:	21b2      	movs	r1, #178	; 0xb2
     9ba:	0089      	lsls	r1, r1, #2
     9bc:	468c      	mov	ip, r1
     9be:	44bc      	add	ip, r7
     9c0:	4463      	add	r3, ip
     9c2:	2107      	movs	r1, #7
     9c4:	400a      	ands	r2, r1
     9c6:	701a      	strb	r2, [r3, #0]
     9c8:	4b26      	ldr	r3, [pc, #152]	; (a64 <execute_next+0x6cc>)
     9ca:	22b2      	movs	r2, #178	; 0xb2
     9cc:	0092      	lsls	r2, r2, #2
     9ce:	4694      	mov	ip, r2
     9d0:	44bc      	add	ip, r7
     9d2:	4463      	add	r3, ip
     9d4:	781a      	ldrb	r2, [r3, #0]
     9d6:	4b1a      	ldr	r3, [pc, #104]	; (a40 <execute_next+0x6a8>)
     9d8:	0092      	lsls	r2, r2, #2
     9da:	58d3      	ldr	r3, [r2, r3]
     9dc:	66fb      	str	r3, [r7, #108]	; 0x6c
     9de:	4b20      	ldr	r3, [pc, #128]	; (a60 <execute_next+0x6c8>)
     9e0:	22b2      	movs	r2, #178	; 0xb2
     9e2:	0092      	lsls	r2, r2, #2
     9e4:	4694      	mov	ip, r2
     9e6:	44bc      	add	ip, r7
     9e8:	4463      	add	r3, ip
     9ea:	781b      	ldrb	r3, [r3, #0]
     9ec:	6efa      	ldr	r2, [r7, #108]	; 0x6c
     9ee:	18d3      	adds	r3, r2, r3
     9f0:	66bb      	str	r3, [r7, #104]	; 0x68
     9f2:	4b1d      	ldr	r3, [pc, #116]	; (a68 <execute_next+0x6d0>)
     9f4:	22b2      	movs	r2, #178	; 0xb2
     9f6:	0092      	lsls	r2, r2, #2
     9f8:	4694      	mov	ip, r2
     9fa:	44bc      	add	ip, r7
     9fc:	4463      	add	r3, ip
     9fe:	781a      	ldrb	r2, [r3, #0]
     a00:	6eb9      	ldr	r1, [r7, #104]	; 0x68
     a02:	4b0f      	ldr	r3, [pc, #60]	; (a40 <execute_next+0x6a8>)
     a04:	0092      	lsls	r2, r2, #2
     a06:	50d1      	str	r1, [r2, r3]
     a08:	6ebb      	ldr	r3, [r7, #104]	; 0x68
     a0a:	0018      	movs	r0, r3
     a0c:	f7ff fffe 	bl	ec <update_nz_flags>
     a10:	6ef8      	ldr	r0, [r7, #108]	; 0x6c
     a12:	4b13      	ldr	r3, [pc, #76]	; (a60 <execute_next+0x6c8>)
     a14:	22b2      	movs	r2, #178	; 0xb2
     a16:	0092      	lsls	r2, r2, #2
     a18:	4694      	mov	ip, r2
     a1a:	44bc      	add	ip, r7
     a1c:	4463      	add	r3, ip
     a1e:	781b      	ldrb	r3, [r3, #0]
     a20:	6eba      	ldr	r2, [r7, #104]	; 0x68
     a22:	0019      	movs	r1, r3
     a24:	f7ff fffe 	bl	148 <update_vc_flags_in_addition>
     a28:	2300      	movs	r3, #0
     a2a:	f002 fa15 	bl	2e58 <execute_next+0x2ac0>
     a2e:	46c0      	nop			; (mov r8, r8)
     a30:	000002a6 	.word	0x000002a6
     a34:	fffffd7f 	.word	0xfffffd7f
     a38:	fffffd7e 	.word	0xfffffd7e
     a3c:	fffffd7d 	.word	0xfffffd7d
     a40:	00000000 	.word	0x00000000
     a44:	dfffffff 	.word	0xdfffffff
     a48:	fffffd8f 	.word	0xfffffd8f
     a4c:	fffffd8e 	.word	0xfffffd8e
     a50:	fffffd8d 	.word	0xfffffd8d
     a54:	fffffd9f 	.word	0xfffffd9f
     a58:	fffffd9e 	.word	0xfffffd9e
     a5c:	fffffd9d 	.word	0xfffffd9d
     a60:	fffffdab 	.word	0xfffffdab
     a64:	fffffdaa 	.word	0xfffffdaa
     a68:	fffffda9 	.word	0xfffffda9
     a6c:	48d8      	ldr	r0, [pc, #864]	; (dd0 <execute_next+0xa38>)
     a6e:	183b      	adds	r3, r7, r0
     a70:	881b      	ldrh	r3, [r3, #0]
     a72:	0a5b      	lsrs	r3, r3, #9
     a74:	b29b      	uxth	r3, r3
     a76:	001a      	movs	r2, r3
     a78:	237f      	movs	r3, #127	; 0x7f
     a7a:	4013      	ands	r3, r2
     a7c:	2b0f      	cmp	r3, #15
     a7e:	d15a      	bne.n	b36 <execute_next+0x79e>
     a80:	183b      	adds	r3, r7, r0
     a82:	881b      	ldrh	r3, [r3, #0]
     a84:	099b      	lsrs	r3, r3, #6
     a86:	b29b      	uxth	r3, r3
     a88:	b2da      	uxtb	r2, r3
     a8a:	4bd2      	ldr	r3, [pc, #840]	; (dd4 <execute_next+0xa3c>)
     a8c:	21b2      	movs	r1, #178	; 0xb2
     a8e:	0089      	lsls	r1, r1, #2
     a90:	468c      	mov	ip, r1
     a92:	44bc      	add	ip, r7
     a94:	4463      	add	r3, ip
     a96:	2107      	movs	r1, #7
     a98:	400a      	ands	r2, r1
     a9a:	701a      	strb	r2, [r3, #0]
     a9c:	183b      	adds	r3, r7, r0
     a9e:	881b      	ldrh	r3, [r3, #0]
     aa0:	08db      	lsrs	r3, r3, #3
     aa2:	b29b      	uxth	r3, r3
     aa4:	b2da      	uxtb	r2, r3
     aa6:	4bcc      	ldr	r3, [pc, #816]	; (dd8 <execute_next+0xa40>)
     aa8:	21b2      	movs	r1, #178	; 0xb2
     aaa:	0089      	lsls	r1, r1, #2
     aac:	468c      	mov	ip, r1
     aae:	44bc      	add	ip, r7
     ab0:	4463      	add	r3, ip
     ab2:	2107      	movs	r1, #7
     ab4:	400a      	ands	r2, r1
     ab6:	701a      	strb	r2, [r3, #0]
     ab8:	183b      	adds	r3, r7, r0
     aba:	881b      	ldrh	r3, [r3, #0]
     abc:	b2da      	uxtb	r2, r3
     abe:	4bc7      	ldr	r3, [pc, #796]	; (ddc <execute_next+0xa44>)
     ac0:	21b2      	movs	r1, #178	; 0xb2
     ac2:	0089      	lsls	r1, r1, #2
     ac4:	468c      	mov	ip, r1
     ac6:	44bc      	add	ip, r7
     ac8:	4463      	add	r3, ip
     aca:	2107      	movs	r1, #7
     acc:	400a      	ands	r2, r1
     ace:	701a      	strb	r2, [r3, #0]
     ad0:	4bc1      	ldr	r3, [pc, #772]	; (dd8 <execute_next+0xa40>)
     ad2:	22b2      	movs	r2, #178	; 0xb2
     ad4:	0092      	lsls	r2, r2, #2
     ad6:	4694      	mov	ip, r2
     ad8:	44bc      	add	ip, r7
     ada:	4463      	add	r3, ip
     adc:	781a      	ldrb	r2, [r3, #0]
     ade:	4bc0      	ldr	r3, [pc, #768]	; (de0 <execute_next+0xa48>)
     ae0:	0092      	lsls	r2, r2, #2
     ae2:	58d3      	ldr	r3, [r2, r3]
     ae4:	67bb      	str	r3, [r7, #120]	; 0x78
     ae6:	4bbb      	ldr	r3, [pc, #748]	; (dd4 <execute_next+0xa3c>)
     ae8:	22b2      	movs	r2, #178	; 0xb2
     aea:	0092      	lsls	r2, r2, #2
     aec:	4694      	mov	ip, r2
     aee:	44bc      	add	ip, r7
     af0:	4463      	add	r3, ip
     af2:	781b      	ldrb	r3, [r3, #0]
     af4:	6fba      	ldr	r2, [r7, #120]	; 0x78
     af6:	1ad3      	subs	r3, r2, r3
     af8:	677b      	str	r3, [r7, #116]	; 0x74
     afa:	4bb8      	ldr	r3, [pc, #736]	; (ddc <execute_next+0xa44>)
     afc:	22b2      	movs	r2, #178	; 0xb2
     afe:	0092      	lsls	r2, r2, #2
     b00:	4694      	mov	ip, r2
     b02:	44bc      	add	ip, r7
     b04:	4463      	add	r3, ip
     b06:	781a      	ldrb	r2, [r3, #0]
     b08:	6f79      	ldr	r1, [r7, #116]	; 0x74
     b0a:	4bb5      	ldr	r3, [pc, #724]	; (de0 <execute_next+0xa48>)
     b0c:	0092      	lsls	r2, r2, #2
     b0e:	50d1      	str	r1, [r2, r3]
     b10:	6f7b      	ldr	r3, [r7, #116]	; 0x74
     b12:	0018      	movs	r0, r3
     b14:	f7ff fffe 	bl	ec <update_nz_flags>
     b18:	6fb8      	ldr	r0, [r7, #120]	; 0x78
     b1a:	4bae      	ldr	r3, [pc, #696]	; (dd4 <execute_next+0xa3c>)
     b1c:	22b2      	movs	r2, #178	; 0xb2
     b1e:	0092      	lsls	r2, r2, #2
     b20:	4694      	mov	ip, r2
     b22:	44bc      	add	ip, r7
     b24:	4463      	add	r3, ip
     b26:	781b      	ldrb	r3, [r3, #0]
     b28:	6f7a      	ldr	r2, [r7, #116]	; 0x74
     b2a:	0019      	movs	r1, r3
     b2c:	f7ff fffe 	bl	1e0 <update_vc_flags_in_subtraction>
     b30:	2300      	movs	r3, #0
     b32:	f002 f991 	bl	2e58 <execute_next+0x2ac0>
     b36:	48a6      	ldr	r0, [pc, #664]	; (dd0 <execute_next+0xa38>)
     b38:	183b      	adds	r3, r7, r0
     b3a:	881b      	ldrh	r3, [r3, #0]
     b3c:	0adb      	lsrs	r3, r3, #11
     b3e:	b29b      	uxth	r3, r3
     b40:	001a      	movs	r2, r3
     b42:	231f      	movs	r3, #31
     b44:	4013      	ands	r3, r2
     b46:	2b04      	cmp	r3, #4
     b48:	d137      	bne.n	bba <execute_next+0x822>
     b4a:	183b      	adds	r3, r7, r0
     b4c:	881b      	ldrh	r3, [r3, #0]
     b4e:	0a1b      	lsrs	r3, r3, #8
     b50:	b29b      	uxth	r3, r3
     b52:	b2da      	uxtb	r2, r3
     b54:	4ba3      	ldr	r3, [pc, #652]	; (de4 <execute_next+0xa4c>)
     b56:	21b2      	movs	r1, #178	; 0xb2
     b58:	0089      	lsls	r1, r1, #2
     b5a:	468c      	mov	ip, r1
     b5c:	44bc      	add	ip, r7
     b5e:	4463      	add	r3, ip
     b60:	2107      	movs	r1, #7
     b62:	400a      	ands	r2, r1
     b64:	701a      	strb	r2, [r3, #0]
     b66:	4ba0      	ldr	r3, [pc, #640]	; (de8 <execute_next+0xa50>)
     b68:	22b2      	movs	r2, #178	; 0xb2
     b6a:	0092      	lsls	r2, r2, #2
     b6c:	4694      	mov	ip, r2
     b6e:	44bc      	add	ip, r7
     b70:	4463      	add	r3, ip
     b72:	183a      	adds	r2, r7, r0
     b74:	8812      	ldrh	r2, [r2, #0]
     b76:	701a      	strb	r2, [r3, #0]
     b78:	4b9a      	ldr	r3, [pc, #616]	; (de4 <execute_next+0xa4c>)
     b7a:	22b2      	movs	r2, #178	; 0xb2
     b7c:	0092      	lsls	r2, r2, #2
     b7e:	4694      	mov	ip, r2
     b80:	44bc      	add	ip, r7
     b82:	4463      	add	r3, ip
     b84:	781a      	ldrb	r2, [r3, #0]
     b86:	4b98      	ldr	r3, [pc, #608]	; (de8 <execute_next+0xa50>)
     b88:	21b2      	movs	r1, #178	; 0xb2
     b8a:	0089      	lsls	r1, r1, #2
     b8c:	468c      	mov	ip, r1
     b8e:	44bc      	add	ip, r7
     b90:	4463      	add	r3, ip
     b92:	7819      	ldrb	r1, [r3, #0]
     b94:	4b92      	ldr	r3, [pc, #584]	; (de0 <execute_next+0xa48>)
     b96:	0092      	lsls	r2, r2, #2
     b98:	50d1      	str	r1, [r2, r3]
     b9a:	4b92      	ldr	r3, [pc, #584]	; (de4 <execute_next+0xa4c>)
     b9c:	22b2      	movs	r2, #178	; 0xb2
     b9e:	0092      	lsls	r2, r2, #2
     ba0:	4694      	mov	ip, r2
     ba2:	44bc      	add	ip, r7
     ba4:	4463      	add	r3, ip
     ba6:	781a      	ldrb	r2, [r3, #0]
     ba8:	4b8d      	ldr	r3, [pc, #564]	; (de0 <execute_next+0xa48>)
     baa:	0092      	lsls	r2, r2, #2
     bac:	58d3      	ldr	r3, [r2, r3]
     bae:	0018      	movs	r0, r3
     bb0:	f7ff fffe 	bl	ec <update_nz_flags>
     bb4:	2300      	movs	r3, #0
     bb6:	f002 f94f 	bl	2e58 <execute_next+0x2ac0>
     bba:	4885      	ldr	r0, [pc, #532]	; (dd0 <execute_next+0xa38>)
     bbc:	183b      	adds	r3, r7, r0
     bbe:	881b      	ldrh	r3, [r3, #0]
     bc0:	0adb      	lsrs	r3, r3, #11
     bc2:	b29b      	uxth	r3, r3
     bc4:	001a      	movs	r2, r3
     bc6:	231f      	movs	r3, #31
     bc8:	4013      	ands	r3, r2
     bca:	2b05      	cmp	r3, #5
     bcc:	d146      	bne.n	c5c <execute_next+0x8c4>
     bce:	183b      	adds	r3, r7, r0
     bd0:	881b      	ldrh	r3, [r3, #0]
     bd2:	0a1b      	lsrs	r3, r3, #8
     bd4:	b29b      	uxth	r3, r3
     bd6:	b2da      	uxtb	r2, r3
     bd8:	4b84      	ldr	r3, [pc, #528]	; (dec <execute_next+0xa54>)
     bda:	21b2      	movs	r1, #178	; 0xb2
     bdc:	0089      	lsls	r1, r1, #2
     bde:	468c      	mov	ip, r1
     be0:	44bc      	add	ip, r7
     be2:	4463      	add	r3, ip
     be4:	2107      	movs	r1, #7
     be6:	400a      	ands	r2, r1
     be8:	701a      	strb	r2, [r3, #0]
     bea:	4b81      	ldr	r3, [pc, #516]	; (df0 <execute_next+0xa58>)
     bec:	22b2      	movs	r2, #178	; 0xb2
     bee:	0092      	lsls	r2, r2, #2
     bf0:	4694      	mov	ip, r2
     bf2:	44bc      	add	ip, r7
     bf4:	4463      	add	r3, ip
     bf6:	183a      	adds	r2, r7, r0
     bf8:	8812      	ldrh	r2, [r2, #0]
     bfa:	701a      	strb	r2, [r3, #0]
     bfc:	4b7b      	ldr	r3, [pc, #492]	; (dec <execute_next+0xa54>)
     bfe:	22b2      	movs	r2, #178	; 0xb2
     c00:	0092      	lsls	r2, r2, #2
     c02:	4694      	mov	ip, r2
     c04:	44bc      	add	ip, r7
     c06:	4463      	add	r3, ip
     c08:	781a      	ldrb	r2, [r3, #0]
     c0a:	4b75      	ldr	r3, [pc, #468]	; (de0 <execute_next+0xa48>)
     c0c:	0092      	lsls	r2, r2, #2
     c0e:	58d3      	ldr	r3, [r2, r3]
     c10:	2488      	movs	r4, #136	; 0x88
     c12:	193a      	adds	r2, r7, r4
     c14:	6013      	str	r3, [r2, #0]
     c16:	4b76      	ldr	r3, [pc, #472]	; (df0 <execute_next+0xa58>)
     c18:	22b2      	movs	r2, #178	; 0xb2
     c1a:	0092      	lsls	r2, r2, #2
     c1c:	4694      	mov	ip, r2
     c1e:	44bc      	add	ip, r7
     c20:	4463      	add	r3, ip
     c22:	781b      	ldrb	r3, [r3, #0]
     c24:	193a      	adds	r2, r7, r4
     c26:	6812      	ldr	r2, [r2, #0]
     c28:	1ad3      	subs	r3, r2, r3
     c2a:	2584      	movs	r5, #132	; 0x84
     c2c:	197a      	adds	r2, r7, r5
     c2e:	6013      	str	r3, [r2, #0]
     c30:	197b      	adds	r3, r7, r5
     c32:	681b      	ldr	r3, [r3, #0]
     c34:	0018      	movs	r0, r3
     c36:	f7ff fffe 	bl	ec <update_nz_flags>
     c3a:	193b      	adds	r3, r7, r4
     c3c:	6818      	ldr	r0, [r3, #0]
     c3e:	4b6c      	ldr	r3, [pc, #432]	; (df0 <execute_next+0xa58>)
     c40:	22b2      	movs	r2, #178	; 0xb2
     c42:	0092      	lsls	r2, r2, #2
     c44:	4694      	mov	ip, r2
     c46:	44bc      	add	ip, r7
     c48:	4463      	add	r3, ip
     c4a:	781b      	ldrb	r3, [r3, #0]
     c4c:	197a      	adds	r2, r7, r5
     c4e:	6812      	ldr	r2, [r2, #0]
     c50:	0019      	movs	r1, r3
     c52:	f7ff fffe 	bl	1e0 <update_vc_flags_in_subtraction>
     c56:	2300      	movs	r3, #0
     c58:	f002 f8fe 	bl	2e58 <execute_next+0x2ac0>
     c5c:	485c      	ldr	r0, [pc, #368]	; (dd0 <execute_next+0xa38>)
     c5e:	183b      	adds	r3, r7, r0
     c60:	881b      	ldrh	r3, [r3, #0]
     c62:	0adb      	lsrs	r3, r3, #11
     c64:	b29b      	uxth	r3, r3
     c66:	001a      	movs	r2, r3
     c68:	231f      	movs	r3, #31
     c6a:	4013      	ands	r3, r2
     c6c:	2b06      	cmp	r3, #6
     c6e:	d152      	bne.n	d16 <execute_next+0x97e>
     c70:	183b      	adds	r3, r7, r0
     c72:	881b      	ldrh	r3, [r3, #0]
     c74:	0a1b      	lsrs	r3, r3, #8
     c76:	b29b      	uxth	r3, r3
     c78:	b2da      	uxtb	r2, r3
     c7a:	4b5e      	ldr	r3, [pc, #376]	; (df4 <execute_next+0xa5c>)
     c7c:	21b2      	movs	r1, #178	; 0xb2
     c7e:	0089      	lsls	r1, r1, #2
     c80:	468c      	mov	ip, r1
     c82:	44bc      	add	ip, r7
     c84:	4463      	add	r3, ip
     c86:	2107      	movs	r1, #7
     c88:	400a      	ands	r2, r1
     c8a:	701a      	strb	r2, [r3, #0]
     c8c:	4b5a      	ldr	r3, [pc, #360]	; (df8 <execute_next+0xa60>)
     c8e:	22b2      	movs	r2, #178	; 0xb2
     c90:	0092      	lsls	r2, r2, #2
     c92:	4694      	mov	ip, r2
     c94:	44bc      	add	ip, r7
     c96:	4463      	add	r3, ip
     c98:	183a      	adds	r2, r7, r0
     c9a:	8812      	ldrh	r2, [r2, #0]
     c9c:	701a      	strb	r2, [r3, #0]
     c9e:	4b55      	ldr	r3, [pc, #340]	; (df4 <execute_next+0xa5c>)
     ca0:	22b2      	movs	r2, #178	; 0xb2
     ca2:	0092      	lsls	r2, r2, #2
     ca4:	4694      	mov	ip, r2
     ca6:	44bc      	add	ip, r7
     ca8:	4463      	add	r3, ip
     caa:	781a      	ldrb	r2, [r3, #0]
     cac:	4b4c      	ldr	r3, [pc, #304]	; (de0 <execute_next+0xa48>)
     cae:	0092      	lsls	r2, r2, #2
     cb0:	58d3      	ldr	r3, [r2, r3]
     cb2:	2594      	movs	r5, #148	; 0x94
     cb4:	197a      	adds	r2, r7, r5
     cb6:	6013      	str	r3, [r2, #0]
     cb8:	4b4f      	ldr	r3, [pc, #316]	; (df8 <execute_next+0xa60>)
     cba:	22b2      	movs	r2, #178	; 0xb2
     cbc:	0092      	lsls	r2, r2, #2
     cbe:	4694      	mov	ip, r2
     cc0:	44bc      	add	ip, r7
     cc2:	4463      	add	r3, ip
     cc4:	781b      	ldrb	r3, [r3, #0]
     cc6:	197a      	adds	r2, r7, r5
     cc8:	6812      	ldr	r2, [r2, #0]
     cca:	18d3      	adds	r3, r2, r3
     ccc:	2490      	movs	r4, #144	; 0x90
     cce:	193a      	adds	r2, r7, r4
     cd0:	6013      	str	r3, [r2, #0]
     cd2:	4b48      	ldr	r3, [pc, #288]	; (df4 <execute_next+0xa5c>)
     cd4:	22b2      	movs	r2, #178	; 0xb2
     cd6:	0092      	lsls	r2, r2, #2
     cd8:	4694      	mov	ip, r2
     cda:	44bc      	add	ip, r7
     cdc:	4463      	add	r3, ip
     cde:	781a      	ldrb	r2, [r3, #0]
     ce0:	193b      	adds	r3, r7, r4
     ce2:	6819      	ldr	r1, [r3, #0]
     ce4:	4b3e      	ldr	r3, [pc, #248]	; (de0 <execute_next+0xa48>)
     ce6:	0092      	lsls	r2, r2, #2
     ce8:	50d1      	str	r1, [r2, r3]
     cea:	193b      	adds	r3, r7, r4
     cec:	681b      	ldr	r3, [r3, #0]
     cee:	0018      	movs	r0, r3
     cf0:	f7ff fffe 	bl	ec <update_nz_flags>
     cf4:	197b      	adds	r3, r7, r5
     cf6:	6818      	ldr	r0, [r3, #0]
     cf8:	4b3f      	ldr	r3, [pc, #252]	; (df8 <execute_next+0xa60>)
     cfa:	22b2      	movs	r2, #178	; 0xb2
     cfc:	0092      	lsls	r2, r2, #2
     cfe:	4694      	mov	ip, r2
     d00:	44bc      	add	ip, r7
     d02:	4463      	add	r3, ip
     d04:	781b      	ldrb	r3, [r3, #0]
     d06:	193a      	adds	r2, r7, r4
     d08:	6812      	ldr	r2, [r2, #0]
     d0a:	0019      	movs	r1, r3
     d0c:	f7ff fffe 	bl	148 <update_vc_flags_in_addition>
     d10:	2300      	movs	r3, #0
     d12:	f002 f8a1 	bl	2e58 <execute_next+0x2ac0>
     d16:	482e      	ldr	r0, [pc, #184]	; (dd0 <execute_next+0xa38>)
     d18:	183b      	adds	r3, r7, r0
     d1a:	881b      	ldrh	r3, [r3, #0]
     d1c:	0adb      	lsrs	r3, r3, #11
     d1e:	b29b      	uxth	r3, r3
     d20:	001a      	movs	r2, r3
     d22:	231f      	movs	r3, #31
     d24:	4013      	ands	r3, r2
     d26:	2b07      	cmp	r3, #7
     d28:	d16c      	bne.n	e04 <execute_next+0xa6c>
     d2a:	183b      	adds	r3, r7, r0
     d2c:	881b      	ldrh	r3, [r3, #0]
     d2e:	0a1b      	lsrs	r3, r3, #8
     d30:	b29b      	uxth	r3, r3
     d32:	b2da      	uxtb	r2, r3
     d34:	4b31      	ldr	r3, [pc, #196]	; (dfc <execute_next+0xa64>)
     d36:	21b2      	movs	r1, #178	; 0xb2
     d38:	0089      	lsls	r1, r1, #2
     d3a:	468c      	mov	ip, r1
     d3c:	44bc      	add	ip, r7
     d3e:	4463      	add	r3, ip
     d40:	2107      	movs	r1, #7
     d42:	400a      	ands	r2, r1
     d44:	701a      	strb	r2, [r3, #0]
     d46:	4b2e      	ldr	r3, [pc, #184]	; (e00 <execute_next+0xa68>)
     d48:	22b2      	movs	r2, #178	; 0xb2
     d4a:	0092      	lsls	r2, r2, #2
     d4c:	4694      	mov	ip, r2
     d4e:	44bc      	add	ip, r7
     d50:	4463      	add	r3, ip
     d52:	183a      	adds	r2, r7, r0
     d54:	8812      	ldrh	r2, [r2, #0]
     d56:	701a      	strb	r2, [r3, #0]
     d58:	4b28      	ldr	r3, [pc, #160]	; (dfc <execute_next+0xa64>)
     d5a:	22b2      	movs	r2, #178	; 0xb2
     d5c:	0092      	lsls	r2, r2, #2
     d5e:	4694      	mov	ip, r2
     d60:	44bc      	add	ip, r7
     d62:	4463      	add	r3, ip
     d64:	781a      	ldrb	r2, [r3, #0]
     d66:	4b1e      	ldr	r3, [pc, #120]	; (de0 <execute_next+0xa48>)
     d68:	0092      	lsls	r2, r2, #2
     d6a:	58d3      	ldr	r3, [r2, r3]
     d6c:	25a0      	movs	r5, #160	; 0xa0
     d6e:	197a      	adds	r2, r7, r5
     d70:	6013      	str	r3, [r2, #0]
     d72:	4b23      	ldr	r3, [pc, #140]	; (e00 <execute_next+0xa68>)
     d74:	22b2      	movs	r2, #178	; 0xb2
     d76:	0092      	lsls	r2, r2, #2
     d78:	4694      	mov	ip, r2
     d7a:	44bc      	add	ip, r7
     d7c:	4463      	add	r3, ip
     d7e:	781b      	ldrb	r3, [r3, #0]
     d80:	197a      	adds	r2, r7, r5
     d82:	6812      	ldr	r2, [r2, #0]
     d84:	1ad3      	subs	r3, r2, r3
     d86:	249c      	movs	r4, #156	; 0x9c
     d88:	193a      	adds	r2, r7, r4
     d8a:	6013      	str	r3, [r2, #0]
     d8c:	4b1b      	ldr	r3, [pc, #108]	; (dfc <execute_next+0xa64>)
     d8e:	22b2      	movs	r2, #178	; 0xb2
     d90:	0092      	lsls	r2, r2, #2
     d92:	4694      	mov	ip, r2
     d94:	44bc      	add	ip, r7
     d96:	4463      	add	r3, ip
     d98:	781a      	ldrb	r2, [r3, #0]
     d9a:	193b      	adds	r3, r7, r4
     d9c:	6819      	ldr	r1, [r3, #0]
     d9e:	4b10      	ldr	r3, [pc, #64]	; (de0 <execute_next+0xa48>)
     da0:	0092      	lsls	r2, r2, #2
     da2:	50d1      	str	r1, [r2, r3]
     da4:	193b      	adds	r3, r7, r4
     da6:	681b      	ldr	r3, [r3, #0]
     da8:	0018      	movs	r0, r3
     daa:	f7ff fffe 	bl	ec <update_nz_flags>
     dae:	197b      	adds	r3, r7, r5
     db0:	6818      	ldr	r0, [r3, #0]
     db2:	4b13      	ldr	r3, [pc, #76]	; (e00 <execute_next+0xa68>)
     db4:	22b2      	movs	r2, #178	; 0xb2
     db6:	0092      	lsls	r2, r2, #2
     db8:	4694      	mov	ip, r2
     dba:	44bc      	add	ip, r7
     dbc:	4463      	add	r3, ip
     dbe:	781b      	ldrb	r3, [r3, #0]
     dc0:	193a      	adds	r2, r7, r4
     dc2:	6812      	ldr	r2, [r2, #0]
     dc4:	0019      	movs	r1, r3
     dc6:	f7ff fffe 	bl	1e0 <update_vc_flags_in_subtraction>
     dca:	2300      	movs	r3, #0
     dcc:	f002 f844 	bl	2e58 <execute_next+0x2ac0>
     dd0:	000002a6 	.word	0x000002a6
     dd4:	fffffdb9 	.word	0xfffffdb9
     dd8:	fffffdb8 	.word	0xfffffdb8
     ddc:	fffffdb7 	.word	0xfffffdb7
     de0:	00000000 	.word	0x00000000
     de4:	fffffdbb 	.word	0xfffffdbb
     de8:	fffffdba 	.word	0xfffffdba
     dec:	fffffdc7 	.word	0xfffffdc7
     df0:	fffffdc6 	.word	0xfffffdc6
     df4:	fffffdd3 	.word	0xfffffdd3
     df8:	fffffdd2 	.word	0xfffffdd2
     dfc:	fffffddf 	.word	0xfffffddf
     e00:	fffffdde 	.word	0xfffffdde
     e04:	48de      	ldr	r0, [pc, #888]	; (1180 <execute_next+0xde8>)
     e06:	183b      	adds	r3, r7, r0
     e08:	881b      	ldrh	r3, [r3, #0]
     e0a:	099b      	lsrs	r3, r3, #6
     e0c:	b29b      	uxth	r3, r3
     e0e:	059b      	lsls	r3, r3, #22
     e10:	0d9a      	lsrs	r2, r3, #22
     e12:	2380      	movs	r3, #128	; 0x80
     e14:	005b      	lsls	r3, r3, #1
     e16:	429a      	cmp	r2, r3
     e18:	d150      	bne.n	ebc <execute_next+0xb24>
     e1a:	183b      	adds	r3, r7, r0
     e1c:	881b      	ldrh	r3, [r3, #0]
     e1e:	b2da      	uxtb	r2, r3
     e20:	4bd8      	ldr	r3, [pc, #864]	; (1184 <execute_next+0xdec>)
     e22:	21b2      	movs	r1, #178	; 0xb2
     e24:	0089      	lsls	r1, r1, #2
     e26:	468c      	mov	ip, r1
     e28:	44bc      	add	ip, r7
     e2a:	4463      	add	r3, ip
     e2c:	2107      	movs	r1, #7
     e2e:	400a      	ands	r2, r1
     e30:	701a      	strb	r2, [r3, #0]
     e32:	183b      	adds	r3, r7, r0
     e34:	881b      	ldrh	r3, [r3, #0]
     e36:	08db      	lsrs	r3, r3, #3
     e38:	b29b      	uxth	r3, r3
     e3a:	b2da      	uxtb	r2, r3
     e3c:	4bd2      	ldr	r3, [pc, #840]	; (1188 <execute_next+0xdf0>)
     e3e:	21b2      	movs	r1, #178	; 0xb2
     e40:	0089      	lsls	r1, r1, #2
     e42:	468c      	mov	ip, r1
     e44:	44bc      	add	ip, r7
     e46:	4463      	add	r3, ip
     e48:	2107      	movs	r1, #7
     e4a:	400a      	ands	r2, r1
     e4c:	701a      	strb	r2, [r3, #0]
     e4e:	4bcd      	ldr	r3, [pc, #820]	; (1184 <execute_next+0xdec>)
     e50:	22b2      	movs	r2, #178	; 0xb2
     e52:	0092      	lsls	r2, r2, #2
     e54:	4694      	mov	ip, r2
     e56:	44bc      	add	ip, r7
     e58:	4463      	add	r3, ip
     e5a:	781a      	ldrb	r2, [r3, #0]
     e5c:	4bcb      	ldr	r3, [pc, #812]	; (118c <execute_next+0xdf4>)
     e5e:	0092      	lsls	r2, r2, #2
     e60:	58d3      	ldr	r3, [r2, r3]
     e62:	21b0      	movs	r1, #176	; 0xb0
     e64:	187a      	adds	r2, r7, r1
     e66:	6013      	str	r3, [r2, #0]
     e68:	4bc7      	ldr	r3, [pc, #796]	; (1188 <execute_next+0xdf0>)
     e6a:	22b2      	movs	r2, #178	; 0xb2
     e6c:	0092      	lsls	r2, r2, #2
     e6e:	4694      	mov	ip, r2
     e70:	44bc      	add	ip, r7
     e72:	4463      	add	r3, ip
     e74:	781a      	ldrb	r2, [r3, #0]
     e76:	4bc5      	ldr	r3, [pc, #788]	; (118c <execute_next+0xdf4>)
     e78:	0092      	lsls	r2, r2, #2
     e7a:	58d3      	ldr	r3, [r2, r3]
     e7c:	22ac      	movs	r2, #172	; 0xac
     e7e:	18b8      	adds	r0, r7, r2
     e80:	6003      	str	r3, [r0, #0]
     e82:	187b      	adds	r3, r7, r1
     e84:	681b      	ldr	r3, [r3, #0]
     e86:	18ba      	adds	r2, r7, r2
     e88:	6812      	ldr	r2, [r2, #0]
     e8a:	4013      	ands	r3, r2
     e8c:	21a8      	movs	r1, #168	; 0xa8
     e8e:	187a      	adds	r2, r7, r1
     e90:	6013      	str	r3, [r2, #0]
     e92:	4bbc      	ldr	r3, [pc, #752]	; (1184 <execute_next+0xdec>)
     e94:	22b2      	movs	r2, #178	; 0xb2
     e96:	0092      	lsls	r2, r2, #2
     e98:	4694      	mov	ip, r2
     e9a:	44bc      	add	ip, r7
     e9c:	4463      	add	r3, ip
     e9e:	781a      	ldrb	r2, [r3, #0]
     ea0:	0008      	movs	r0, r1
     ea2:	187b      	adds	r3, r7, r1
     ea4:	6819      	ldr	r1, [r3, #0]
     ea6:	4bb9      	ldr	r3, [pc, #740]	; (118c <execute_next+0xdf4>)
     ea8:	0092      	lsls	r2, r2, #2
     eaa:	50d1      	str	r1, [r2, r3]
     eac:	183b      	adds	r3, r7, r0
     eae:	681b      	ldr	r3, [r3, #0]
     eb0:	0018      	movs	r0, r3
     eb2:	f7ff fffe 	bl	ec <update_nz_flags>
     eb6:	2300      	movs	r3, #0
     eb8:	f001 ffce 	bl	2e58 <execute_next+0x2ac0>
     ebc:	48b0      	ldr	r0, [pc, #704]	; (1180 <execute_next+0xde8>)
     ebe:	183b      	adds	r3, r7, r0
     ec0:	881b      	ldrh	r3, [r3, #0]
     ec2:	099b      	lsrs	r3, r3, #6
     ec4:	b29b      	uxth	r3, r3
     ec6:	059b      	lsls	r3, r3, #22
     ec8:	0d9a      	lsrs	r2, r3, #22
     eca:	2302      	movs	r3, #2
     ecc:	33ff      	adds	r3, #255	; 0xff
     ece:	429a      	cmp	r2, r3
     ed0:	d150      	bne.n	f74 <execute_next+0xbdc>
     ed2:	183b      	adds	r3, r7, r0
     ed4:	881b      	ldrh	r3, [r3, #0]
     ed6:	b2da      	uxtb	r2, r3
     ed8:	4bad      	ldr	r3, [pc, #692]	; (1190 <execute_next+0xdf8>)
     eda:	21b2      	movs	r1, #178	; 0xb2
     edc:	0089      	lsls	r1, r1, #2
     ede:	468c      	mov	ip, r1
     ee0:	44bc      	add	ip, r7
     ee2:	4463      	add	r3, ip
     ee4:	2107      	movs	r1, #7
     ee6:	400a      	ands	r2, r1
     ee8:	701a      	strb	r2, [r3, #0]
     eea:	183b      	adds	r3, r7, r0
     eec:	881b      	ldrh	r3, [r3, #0]
     eee:	08db      	lsrs	r3, r3, #3
     ef0:	b29b      	uxth	r3, r3
     ef2:	b2da      	uxtb	r2, r3
     ef4:	4ba7      	ldr	r3, [pc, #668]	; (1194 <execute_next+0xdfc>)
     ef6:	21b2      	movs	r1, #178	; 0xb2
     ef8:	0089      	lsls	r1, r1, #2
     efa:	468c      	mov	ip, r1
     efc:	44bc      	add	ip, r7
     efe:	4463      	add	r3, ip
     f00:	2107      	movs	r1, #7
     f02:	400a      	ands	r2, r1
     f04:	701a      	strb	r2, [r3, #0]
     f06:	4ba2      	ldr	r3, [pc, #648]	; (1190 <execute_next+0xdf8>)
     f08:	22b2      	movs	r2, #178	; 0xb2
     f0a:	0092      	lsls	r2, r2, #2
     f0c:	4694      	mov	ip, r2
     f0e:	44bc      	add	ip, r7
     f10:	4463      	add	r3, ip
     f12:	781a      	ldrb	r2, [r3, #0]
     f14:	4b9d      	ldr	r3, [pc, #628]	; (118c <execute_next+0xdf4>)
     f16:	0092      	lsls	r2, r2, #2
     f18:	58d3      	ldr	r3, [r2, r3]
     f1a:	21c0      	movs	r1, #192	; 0xc0
     f1c:	187a      	adds	r2, r7, r1
     f1e:	6013      	str	r3, [r2, #0]
     f20:	4b9c      	ldr	r3, [pc, #624]	; (1194 <execute_next+0xdfc>)
     f22:	22b2      	movs	r2, #178	; 0xb2
     f24:	0092      	lsls	r2, r2, #2
     f26:	4694      	mov	ip, r2
     f28:	44bc      	add	ip, r7
     f2a:	4463      	add	r3, ip
     f2c:	781a      	ldrb	r2, [r3, #0]
     f2e:	4b97      	ldr	r3, [pc, #604]	; (118c <execute_next+0xdf4>)
     f30:	0092      	lsls	r2, r2, #2
     f32:	58d3      	ldr	r3, [r2, r3]
     f34:	20bc      	movs	r0, #188	; 0xbc
     f36:	183a      	adds	r2, r7, r0
     f38:	6013      	str	r3, [r2, #0]
     f3a:	187b      	adds	r3, r7, r1
     f3c:	681a      	ldr	r2, [r3, #0]
     f3e:	183b      	adds	r3, r7, r0
     f40:	681b      	ldr	r3, [r3, #0]
     f42:	4053      	eors	r3, r2
     f44:	21b8      	movs	r1, #184	; 0xb8
     f46:	187a      	adds	r2, r7, r1
     f48:	6013      	str	r3, [r2, #0]
     f4a:	4b91      	ldr	r3, [pc, #580]	; (1190 <execute_next+0xdf8>)
     f4c:	22b2      	movs	r2, #178	; 0xb2
     f4e:	0092      	lsls	r2, r2, #2
     f50:	4694      	mov	ip, r2
     f52:	44bc      	add	ip, r7
     f54:	4463      	add	r3, ip
     f56:	781a      	ldrb	r2, [r3, #0]
     f58:	0008      	movs	r0, r1
     f5a:	187b      	adds	r3, r7, r1
     f5c:	6819      	ldr	r1, [r3, #0]
     f5e:	4b8b      	ldr	r3, [pc, #556]	; (118c <execute_next+0xdf4>)
     f60:	0092      	lsls	r2, r2, #2
     f62:	50d1      	str	r1, [r2, r3]
     f64:	183b      	adds	r3, r7, r0
     f66:	681b      	ldr	r3, [r3, #0]
     f68:	0018      	movs	r0, r3
     f6a:	f7ff fffe 	bl	ec <update_nz_flags>
     f6e:	2300      	movs	r3, #0
     f70:	f001 ff72 	bl	2e58 <execute_next+0x2ac0>
     f74:	4882      	ldr	r0, [pc, #520]	; (1180 <execute_next+0xde8>)
     f76:	183b      	adds	r3, r7, r0
     f78:	881b      	ldrh	r3, [r3, #0]
     f7a:	099b      	lsrs	r3, r3, #6
     f7c:	b29b      	uxth	r3, r3
     f7e:	059b      	lsls	r3, r3, #22
     f80:	0d9a      	lsrs	r2, r3, #22
     f82:	2381      	movs	r3, #129	; 0x81
     f84:	005b      	lsls	r3, r3, #1
     f86:	429a      	cmp	r2, r3
     f88:	d177      	bne.n	107a <execute_next+0xce2>
     f8a:	183b      	adds	r3, r7, r0
     f8c:	881b      	ldrh	r3, [r3, #0]
     f8e:	b2da      	uxtb	r2, r3
     f90:	4b81      	ldr	r3, [pc, #516]	; (1198 <execute_next+0xe00>)
     f92:	21b2      	movs	r1, #178	; 0xb2
     f94:	0089      	lsls	r1, r1, #2
     f96:	468c      	mov	ip, r1
     f98:	44bc      	add	ip, r7
     f9a:	4463      	add	r3, ip
     f9c:	2107      	movs	r1, #7
     f9e:	400a      	ands	r2, r1
     fa0:	701a      	strb	r2, [r3, #0]
     fa2:	183b      	adds	r3, r7, r0
     fa4:	881b      	ldrh	r3, [r3, #0]
     fa6:	08db      	lsrs	r3, r3, #3
     fa8:	b29b      	uxth	r3, r3
     faa:	b2da      	uxtb	r2, r3
     fac:	4b7b      	ldr	r3, [pc, #492]	; (119c <execute_next+0xe04>)
     fae:	21b2      	movs	r1, #178	; 0xb2
     fb0:	0089      	lsls	r1, r1, #2
     fb2:	468c      	mov	ip, r1
     fb4:	44bc      	add	ip, r7
     fb6:	4463      	add	r3, ip
     fb8:	2107      	movs	r1, #7
     fba:	400a      	ands	r2, r1
     fbc:	701a      	strb	r2, [r3, #0]
     fbe:	4b76      	ldr	r3, [pc, #472]	; (1198 <execute_next+0xe00>)
     fc0:	22b2      	movs	r2, #178	; 0xb2
     fc2:	0092      	lsls	r2, r2, #2
     fc4:	4694      	mov	ip, r2
     fc6:	44bc      	add	ip, r7
     fc8:	4463      	add	r3, ip
     fca:	781a      	ldrb	r2, [r3, #0]
     fcc:	4b6f      	ldr	r3, [pc, #444]	; (118c <execute_next+0xdf4>)
     fce:	0092      	lsls	r2, r2, #2
     fd0:	58d3      	ldr	r3, [r2, r3]
     fd2:	20d4      	movs	r0, #212	; 0xd4
     fd4:	183a      	adds	r2, r7, r0
     fd6:	6013      	str	r3, [r2, #0]
     fd8:	4b70      	ldr	r3, [pc, #448]	; (119c <execute_next+0xe04>)
     fda:	22b2      	movs	r2, #178	; 0xb2
     fdc:	0092      	lsls	r2, r2, #2
     fde:	4694      	mov	ip, r2
     fe0:	44bc      	add	ip, r7
     fe2:	4463      	add	r3, ip
     fe4:	781a      	ldrb	r2, [r3, #0]
     fe6:	4b69      	ldr	r3, [pc, #420]	; (118c <execute_next+0xdf4>)
     fe8:	0092      	lsls	r2, r2, #2
     fea:	58d3      	ldr	r3, [r2, r3]
     fec:	001a      	movs	r2, r3
     fee:	23ff      	movs	r3, #255	; 0xff
     ff0:	4013      	ands	r3, r2
     ff2:	24d0      	movs	r4, #208	; 0xd0
     ff4:	193a      	adds	r2, r7, r4
     ff6:	6013      	str	r3, [r2, #0]
     ff8:	183b      	adds	r3, r7, r0
     ffa:	681a      	ldr	r2, [r3, #0]
     ffc:	193b      	adds	r3, r7, r4
     ffe:	681b      	ldr	r3, [r3, #0]
    1000:	409a      	lsls	r2, r3
    1002:	0013      	movs	r3, r2
    1004:	25cc      	movs	r5, #204	; 0xcc
    1006:	197a      	adds	r2, r7, r5
    1008:	6013      	str	r3, [r2, #0]
    100a:	4b63      	ldr	r3, [pc, #396]	; (1198 <execute_next+0xe00>)
    100c:	22b2      	movs	r2, #178	; 0xb2
    100e:	0092      	lsls	r2, r2, #2
    1010:	4694      	mov	ip, r2
    1012:	44bc      	add	ip, r7
    1014:	4463      	add	r3, ip
    1016:	781a      	ldrb	r2, [r3, #0]
    1018:	197b      	adds	r3, r7, r5
    101a:	6819      	ldr	r1, [r3, #0]
    101c:	4b5b      	ldr	r3, [pc, #364]	; (118c <execute_next+0xdf4>)
    101e:	0092      	lsls	r2, r2, #2
    1020:	50d1      	str	r1, [r2, r3]
    1022:	193b      	adds	r3, r7, r4
    1024:	681b      	ldr	r3, [r3, #0]
    1026:	221f      	movs	r2, #31
    1028:	1ad3      	subs	r3, r2, r3
    102a:	183a      	adds	r2, r7, r0
    102c:	6812      	ldr	r2, [r2, #0]
    102e:	40da      	lsrs	r2, r3
    1030:	0013      	movs	r3, r2
    1032:	001a      	movs	r2, r3
    1034:	2301      	movs	r3, #1
    1036:	4013      	ands	r3, r2
    1038:	26c8      	movs	r6, #200	; 0xc8
    103a:	19ba      	adds	r2, r7, r6
    103c:	6013      	str	r3, [r2, #0]
    103e:	197b      	adds	r3, r7, r5
    1040:	681b      	ldr	r3, [r3, #0]
    1042:	0018      	movs	r0, r3
    1044:	f7ff fffe 	bl	ec <update_nz_flags>
    1048:	193b      	adds	r3, r7, r4
    104a:	681b      	ldr	r3, [r3, #0]
    104c:	2b00      	cmp	r3, #0
    104e:	d011      	beq.n	1074 <execute_next+0xcdc>
    1050:	19bb      	adds	r3, r7, r6
    1052:	681b      	ldr	r3, [r3, #0]
    1054:	2b00      	cmp	r3, #0
    1056:	d007      	beq.n	1068 <execute_next+0xcd0>
    1058:	4b4c      	ldr	r3, [pc, #304]	; (118c <execute_next+0xdf4>)
    105a:	6c1b      	ldr	r3, [r3, #64]	; 0x40
    105c:	2280      	movs	r2, #128	; 0x80
    105e:	0592      	lsls	r2, r2, #22
    1060:	431a      	orrs	r2, r3
    1062:	4b4a      	ldr	r3, [pc, #296]	; (118c <execute_next+0xdf4>)
    1064:	641a      	str	r2, [r3, #64]	; 0x40
    1066:	e005      	b.n	1074 <execute_next+0xcdc>
    1068:	4b48      	ldr	r3, [pc, #288]	; (118c <execute_next+0xdf4>)
    106a:	6c1b      	ldr	r3, [r3, #64]	; 0x40
    106c:	4a4c      	ldr	r2, [pc, #304]	; (11a0 <execute_next+0xe08>)
    106e:	401a      	ands	r2, r3
    1070:	4b46      	ldr	r3, [pc, #280]	; (118c <execute_next+0xdf4>)
    1072:	641a      	str	r2, [r3, #64]	; 0x40
    1074:	2300      	movs	r3, #0
    1076:	f001 feef 	bl	2e58 <execute_next+0x2ac0>
    107a:	4841      	ldr	r0, [pc, #260]	; (1180 <execute_next+0xde8>)
    107c:	183b      	adds	r3, r7, r0
    107e:	881b      	ldrh	r3, [r3, #0]
    1080:	099b      	lsrs	r3, r3, #6
    1082:	b29b      	uxth	r3, r3
    1084:	059b      	lsls	r3, r3, #22
    1086:	0d9a      	lsrs	r2, r3, #22
    1088:	2304      	movs	r3, #4
    108a:	33ff      	adds	r3, #255	; 0xff
    108c:	429a      	cmp	r2, r3
    108e:	d000      	beq.n	1092 <execute_next+0xcfa>
    1090:	e08c      	b.n	11ac <execute_next+0xe14>
    1092:	183b      	adds	r3, r7, r0
    1094:	881b      	ldrh	r3, [r3, #0]
    1096:	b2da      	uxtb	r2, r3
    1098:	4b42      	ldr	r3, [pc, #264]	; (11a4 <execute_next+0xe0c>)
    109a:	21b2      	movs	r1, #178	; 0xb2
    109c:	0089      	lsls	r1, r1, #2
    109e:	468c      	mov	ip, r1
    10a0:	44bc      	add	ip, r7
    10a2:	4463      	add	r3, ip
    10a4:	2107      	movs	r1, #7
    10a6:	400a      	ands	r2, r1
    10a8:	701a      	strb	r2, [r3, #0]
    10aa:	183b      	adds	r3, r7, r0
    10ac:	881b      	ldrh	r3, [r3, #0]
    10ae:	08db      	lsrs	r3, r3, #3
    10b0:	b29b      	uxth	r3, r3
    10b2:	b2da      	uxtb	r2, r3
    10b4:	4b3c      	ldr	r3, [pc, #240]	; (11a8 <execute_next+0xe10>)
    10b6:	21b2      	movs	r1, #178	; 0xb2
    10b8:	0089      	lsls	r1, r1, #2
    10ba:	468c      	mov	ip, r1
    10bc:	44bc      	add	ip, r7
    10be:	4463      	add	r3, ip
    10c0:	2107      	movs	r1, #7
    10c2:	400a      	ands	r2, r1
    10c4:	701a      	strb	r2, [r3, #0]
    10c6:	4b37      	ldr	r3, [pc, #220]	; (11a4 <execute_next+0xe0c>)
    10c8:	22b2      	movs	r2, #178	; 0xb2
    10ca:	0092      	lsls	r2, r2, #2
    10cc:	4694      	mov	ip, r2
    10ce:	44bc      	add	ip, r7
    10d0:	4463      	add	r3, ip
    10d2:	781a      	ldrb	r2, [r3, #0]
    10d4:	4b2d      	ldr	r3, [pc, #180]	; (118c <execute_next+0xdf4>)
    10d6:	0092      	lsls	r2, r2, #2
    10d8:	58d3      	ldr	r3, [r2, r3]
    10da:	20e8      	movs	r0, #232	; 0xe8
    10dc:	183a      	adds	r2, r7, r0
    10de:	6013      	str	r3, [r2, #0]
    10e0:	4b31      	ldr	r3, [pc, #196]	; (11a8 <execute_next+0xe10>)
    10e2:	22b2      	movs	r2, #178	; 0xb2
    10e4:	0092      	lsls	r2, r2, #2
    10e6:	4694      	mov	ip, r2
    10e8:	44bc      	add	ip, r7
    10ea:	4463      	add	r3, ip
    10ec:	781a      	ldrb	r2, [r3, #0]
    10ee:	4b27      	ldr	r3, [pc, #156]	; (118c <execute_next+0xdf4>)
    10f0:	0092      	lsls	r2, r2, #2
    10f2:	58d3      	ldr	r3, [r2, r3]
    10f4:	001a      	movs	r2, r3
    10f6:	23ff      	movs	r3, #255	; 0xff
    10f8:	4013      	ands	r3, r2
    10fa:	24e4      	movs	r4, #228	; 0xe4
    10fc:	193a      	adds	r2, r7, r4
    10fe:	6013      	str	r3, [r2, #0]
    1100:	183b      	adds	r3, r7, r0
    1102:	681a      	ldr	r2, [r3, #0]
    1104:	193b      	adds	r3, r7, r4
    1106:	681b      	ldr	r3, [r3, #0]
    1108:	40da      	lsrs	r2, r3
    110a:	0013      	movs	r3, r2
    110c:	25e0      	movs	r5, #224	; 0xe0
    110e:	197a      	adds	r2, r7, r5
    1110:	6013      	str	r3, [r2, #0]
    1112:	4b24      	ldr	r3, [pc, #144]	; (11a4 <execute_next+0xe0c>)
    1114:	22b2      	movs	r2, #178	; 0xb2
    1116:	0092      	lsls	r2, r2, #2
    1118:	4694      	mov	ip, r2
    111a:	44bc      	add	ip, r7
    111c:	4463      	add	r3, ip
    111e:	781a      	ldrb	r2, [r3, #0]
    1120:	197b      	adds	r3, r7, r5
    1122:	6819      	ldr	r1, [r3, #0]
    1124:	4b19      	ldr	r3, [pc, #100]	; (118c <execute_next+0xdf4>)
    1126:	0092      	lsls	r2, r2, #2
    1128:	50d1      	str	r1, [r2, r3]
    112a:	193b      	adds	r3, r7, r4
    112c:	681b      	ldr	r3, [r3, #0]
    112e:	3b01      	subs	r3, #1
    1130:	183a      	adds	r2, r7, r0
    1132:	6812      	ldr	r2, [r2, #0]
    1134:	40da      	lsrs	r2, r3
    1136:	0013      	movs	r3, r2
    1138:	001a      	movs	r2, r3
    113a:	2301      	movs	r3, #1
    113c:	4013      	ands	r3, r2
    113e:	26dc      	movs	r6, #220	; 0xdc
    1140:	19ba      	adds	r2, r7, r6
    1142:	6013      	str	r3, [r2, #0]
    1144:	197b      	adds	r3, r7, r5
    1146:	681b      	ldr	r3, [r3, #0]
    1148:	0018      	movs	r0, r3
    114a:	f7ff fffe 	bl	ec <update_nz_flags>
    114e:	193b      	adds	r3, r7, r4
    1150:	681b      	ldr	r3, [r3, #0]
    1152:	2b00      	cmp	r3, #0
    1154:	d011      	beq.n	117a <execute_next+0xde2>
    1156:	19bb      	adds	r3, r7, r6
    1158:	681b      	ldr	r3, [r3, #0]
    115a:	2b00      	cmp	r3, #0
    115c:	d007      	beq.n	116e <execute_next+0xdd6>
    115e:	4b0b      	ldr	r3, [pc, #44]	; (118c <execute_next+0xdf4>)
    1160:	6c1b      	ldr	r3, [r3, #64]	; 0x40
    1162:	2280      	movs	r2, #128	; 0x80
    1164:	0592      	lsls	r2, r2, #22
    1166:	431a      	orrs	r2, r3
    1168:	4b08      	ldr	r3, [pc, #32]	; (118c <execute_next+0xdf4>)
    116a:	641a      	str	r2, [r3, #64]	; 0x40
    116c:	e005      	b.n	117a <execute_next+0xde2>
    116e:	4b07      	ldr	r3, [pc, #28]	; (118c <execute_next+0xdf4>)
    1170:	6c1b      	ldr	r3, [r3, #64]	; 0x40
    1172:	4a0b      	ldr	r2, [pc, #44]	; (11a0 <execute_next+0xe08>)
    1174:	401a      	ands	r2, r3
    1176:	4b05      	ldr	r3, [pc, #20]	; (118c <execute_next+0xdf4>)
    1178:	641a      	str	r2, [r3, #64]	; 0x40
    117a:	2300      	movs	r3, #0
    117c:	f001 fe6c 	bl	2e58 <execute_next+0x2ac0>
    1180:	000002a6 	.word	0x000002a6
    1184:	fffffdef 	.word	0xfffffdef
    1188:	fffffdee 	.word	0xfffffdee
    118c:	00000000 	.word	0x00000000
    1190:	fffffdff 	.word	0xfffffdff
    1194:	fffffdfe 	.word	0xfffffdfe
    1198:	fffffe13 	.word	0xfffffe13
    119c:	fffffe12 	.word	0xfffffe12
    11a0:	dfffffff 	.word	0xdfffffff
    11a4:	fffffe27 	.word	0xfffffe27
    11a8:	fffffe26 	.word	0xfffffe26
    11ac:	48b9      	ldr	r0, [pc, #740]	; (1494 <execute_next+0x10fc>)
    11ae:	183b      	adds	r3, r7, r0
    11b0:	881b      	ldrh	r3, [r3, #0]
    11b2:	099b      	lsrs	r3, r3, #6
    11b4:	b29b      	uxth	r3, r3
    11b6:	059b      	lsls	r3, r3, #22
    11b8:	0d9a      	lsrs	r2, r3, #22
    11ba:	2382      	movs	r3, #130	; 0x82
    11bc:	005b      	lsls	r3, r3, #1
    11be:	429a      	cmp	r2, r3
    11c0:	d175      	bne.n	12ae <execute_next+0xf16>
    11c2:	183b      	adds	r3, r7, r0
    11c4:	881b      	ldrh	r3, [r3, #0]
    11c6:	b2da      	uxtb	r2, r3
    11c8:	4bb3      	ldr	r3, [pc, #716]	; (1498 <execute_next+0x1100>)
    11ca:	21b2      	movs	r1, #178	; 0xb2
    11cc:	0089      	lsls	r1, r1, #2
    11ce:	468c      	mov	ip, r1
    11d0:	44bc      	add	ip, r7
    11d2:	4463      	add	r3, ip
    11d4:	2107      	movs	r1, #7
    11d6:	400a      	ands	r2, r1
    11d8:	701a      	strb	r2, [r3, #0]
    11da:	183b      	adds	r3, r7, r0
    11dc:	881b      	ldrh	r3, [r3, #0]
    11de:	08db      	lsrs	r3, r3, #3
    11e0:	b29b      	uxth	r3, r3
    11e2:	b2da      	uxtb	r2, r3
    11e4:	4bad      	ldr	r3, [pc, #692]	; (149c <execute_next+0x1104>)
    11e6:	21b2      	movs	r1, #178	; 0xb2
    11e8:	0089      	lsls	r1, r1, #2
    11ea:	468c      	mov	ip, r1
    11ec:	44bc      	add	ip, r7
    11ee:	4463      	add	r3, ip
    11f0:	2107      	movs	r1, #7
    11f2:	400a      	ands	r2, r1
    11f4:	701a      	strb	r2, [r3, #0]
    11f6:	4ba8      	ldr	r3, [pc, #672]	; (1498 <execute_next+0x1100>)
    11f8:	22b2      	movs	r2, #178	; 0xb2
    11fa:	0092      	lsls	r2, r2, #2
    11fc:	4694      	mov	ip, r2
    11fe:	44bc      	add	ip, r7
    1200:	4463      	add	r3, ip
    1202:	781a      	ldrb	r2, [r3, #0]
    1204:	4ba6      	ldr	r3, [pc, #664]	; (14a0 <execute_next+0x1108>)
    1206:	0092      	lsls	r2, r2, #2
    1208:	58d3      	ldr	r3, [r2, r3]
    120a:	25fc      	movs	r5, #252	; 0xfc
    120c:	197a      	adds	r2, r7, r5
    120e:	6013      	str	r3, [r2, #0]
    1210:	4ba2      	ldr	r3, [pc, #648]	; (149c <execute_next+0x1104>)
    1212:	22b2      	movs	r2, #178	; 0xb2
    1214:	0092      	lsls	r2, r2, #2
    1216:	4694      	mov	ip, r2
    1218:	44bc      	add	ip, r7
    121a:	4463      	add	r3, ip
    121c:	781a      	ldrb	r2, [r3, #0]
    121e:	4ba0      	ldr	r3, [pc, #640]	; (14a0 <execute_next+0x1108>)
    1220:	0092      	lsls	r2, r2, #2
    1222:	58d3      	ldr	r3, [r2, r3]
    1224:	22ff      	movs	r2, #255	; 0xff
    1226:	4013      	ands	r3, r2
    1228:	24f8      	movs	r4, #248	; 0xf8
    122a:	193a      	adds	r2, r7, r4
    122c:	6013      	str	r3, [r2, #0]
    122e:	197b      	adds	r3, r7, r5
    1230:	681a      	ldr	r2, [r3, #0]
    1232:	193b      	adds	r3, r7, r4
    1234:	681b      	ldr	r3, [r3, #0]
    1236:	411a      	asrs	r2, r3
    1238:	0013      	movs	r3, r2
    123a:	21f4      	movs	r1, #244	; 0xf4
    123c:	187a      	adds	r2, r7, r1
    123e:	6013      	str	r3, [r2, #0]
    1240:	4b95      	ldr	r3, [pc, #596]	; (1498 <execute_next+0x1100>)
    1242:	22b2      	movs	r2, #178	; 0xb2
    1244:	0092      	lsls	r2, r2, #2
    1246:	4694      	mov	ip, r2
    1248:	44bc      	add	ip, r7
    124a:	4463      	add	r3, ip
    124c:	781a      	ldrb	r2, [r3, #0]
    124e:	4b94      	ldr	r3, [pc, #592]	; (14a0 <execute_next+0x1108>)
    1250:	0092      	lsls	r2, r2, #2
    1252:	0008      	movs	r0, r1
    1254:	1879      	adds	r1, r7, r1
    1256:	6809      	ldr	r1, [r1, #0]
    1258:	50d1      	str	r1, [r2, r3]
    125a:	183b      	adds	r3, r7, r0
    125c:	681b      	ldr	r3, [r3, #0]
    125e:	0018      	movs	r0, r3
    1260:	f7ff fffe 	bl	ec <update_nz_flags>
    1264:	193b      	adds	r3, r7, r4
    1266:	681b      	ldr	r3, [r3, #0]
    1268:	3b01      	subs	r3, #1
    126a:	197a      	adds	r2, r7, r5
    126c:	6812      	ldr	r2, [r2, #0]
    126e:	411a      	asrs	r2, r3
    1270:	0013      	movs	r3, r2
    1272:	2201      	movs	r2, #1
    1274:	4013      	ands	r3, r2
    1276:	22f0      	movs	r2, #240	; 0xf0
    1278:	18b9      	adds	r1, r7, r2
    127a:	600b      	str	r3, [r1, #0]
    127c:	193b      	adds	r3, r7, r4
    127e:	681b      	ldr	r3, [r3, #0]
    1280:	2b00      	cmp	r3, #0
    1282:	dd11      	ble.n	12a8 <execute_next+0xf10>
    1284:	18bb      	adds	r3, r7, r2
    1286:	681b      	ldr	r3, [r3, #0]
    1288:	2b00      	cmp	r3, #0
    128a:	d007      	beq.n	129c <execute_next+0xf04>
    128c:	4b84      	ldr	r3, [pc, #528]	; (14a0 <execute_next+0x1108>)
    128e:	6c1b      	ldr	r3, [r3, #64]	; 0x40
    1290:	2280      	movs	r2, #128	; 0x80
    1292:	0592      	lsls	r2, r2, #22
    1294:	431a      	orrs	r2, r3
    1296:	4b82      	ldr	r3, [pc, #520]	; (14a0 <execute_next+0x1108>)
    1298:	641a      	str	r2, [r3, #64]	; 0x40
    129a:	e005      	b.n	12a8 <execute_next+0xf10>
    129c:	4b80      	ldr	r3, [pc, #512]	; (14a0 <execute_next+0x1108>)
    129e:	6c1b      	ldr	r3, [r3, #64]	; 0x40
    12a0:	4a80      	ldr	r2, [pc, #512]	; (14a4 <execute_next+0x110c>)
    12a2:	401a      	ands	r2, r3
    12a4:	4b7e      	ldr	r3, [pc, #504]	; (14a0 <execute_next+0x1108>)
    12a6:	641a      	str	r2, [r3, #64]	; 0x40
    12a8:	2300      	movs	r3, #0
    12aa:	f001 fdd5 	bl	2e58 <execute_next+0x2ac0>
    12ae:	4879      	ldr	r0, [pc, #484]	; (1494 <execute_next+0x10fc>)
    12b0:	183b      	adds	r3, r7, r0
    12b2:	881b      	ldrh	r3, [r3, #0]
    12b4:	099b      	lsrs	r3, r3, #6
    12b6:	b29b      	uxth	r3, r3
    12b8:	059b      	lsls	r3, r3, #22
    12ba:	0d9a      	lsrs	r2, r3, #22
    12bc:	2306      	movs	r3, #6
    12be:	33ff      	adds	r3, #255	; 0xff
    12c0:	429a      	cmp	r2, r3
    12c2:	d16d      	bne.n	13a0 <execute_next+0x1008>
    12c4:	183b      	adds	r3, r7, r0
    12c6:	881b      	ldrh	r3, [r3, #0]
    12c8:	b2da      	uxtb	r2, r3
    12ca:	4b77      	ldr	r3, [pc, #476]	; (14a8 <execute_next+0x1110>)
    12cc:	21b2      	movs	r1, #178	; 0xb2
    12ce:	0089      	lsls	r1, r1, #2
    12d0:	468c      	mov	ip, r1
    12d2:	44bc      	add	ip, r7
    12d4:	4463      	add	r3, ip
    12d6:	2107      	movs	r1, #7
    12d8:	400a      	ands	r2, r1
    12da:	701a      	strb	r2, [r3, #0]
    12dc:	183b      	adds	r3, r7, r0
    12de:	881b      	ldrh	r3, [r3, #0]
    12e0:	08db      	lsrs	r3, r3, #3
    12e2:	b29b      	uxth	r3, r3
    12e4:	b2da      	uxtb	r2, r3
    12e6:	4b71      	ldr	r3, [pc, #452]	; (14ac <execute_next+0x1114>)
    12e8:	21b2      	movs	r1, #178	; 0xb2
    12ea:	0089      	lsls	r1, r1, #2
    12ec:	468c      	mov	ip, r1
    12ee:	44bc      	add	ip, r7
    12f0:	4463      	add	r3, ip
    12f2:	2107      	movs	r1, #7
    12f4:	400a      	ands	r2, r1
    12f6:	701a      	strb	r2, [r3, #0]
    12f8:	4b6b      	ldr	r3, [pc, #428]	; (14a8 <execute_next+0x1110>)
    12fa:	22b2      	movs	r2, #178	; 0xb2
    12fc:	0092      	lsls	r2, r2, #2
    12fe:	4694      	mov	ip, r2
    1300:	44bc      	add	ip, r7
    1302:	4463      	add	r3, ip
    1304:	781a      	ldrb	r2, [r3, #0]
    1306:	4b66      	ldr	r3, [pc, #408]	; (14a0 <execute_next+0x1108>)
    1308:	0092      	lsls	r2, r2, #2
    130a:	58d3      	ldr	r3, [r2, r3]
    130c:	2488      	movs	r4, #136	; 0x88
    130e:	0064      	lsls	r4, r4, #1
    1310:	193a      	adds	r2, r7, r4
    1312:	6013      	str	r3, [r2, #0]
    1314:	4b65      	ldr	r3, [pc, #404]	; (14ac <execute_next+0x1114>)
    1316:	22b2      	movs	r2, #178	; 0xb2
    1318:	0092      	lsls	r2, r2, #2
    131a:	4694      	mov	ip, r2
    131c:	44bc      	add	ip, r7
    131e:	4463      	add	r3, ip
    1320:	781a      	ldrb	r2, [r3, #0]
    1322:	4b5f      	ldr	r3, [pc, #380]	; (14a0 <execute_next+0x1108>)
    1324:	0092      	lsls	r2, r2, #2
    1326:	58d3      	ldr	r3, [r2, r3]
    1328:	2586      	movs	r5, #134	; 0x86
    132a:	006d      	lsls	r5, r5, #1
    132c:	197a      	adds	r2, r7, r5
    132e:	6013      	str	r3, [r2, #0]
    1330:	4b5b      	ldr	r3, [pc, #364]	; (14a0 <execute_next+0x1108>)
    1332:	6c1b      	ldr	r3, [r3, #64]	; 0x40
    1334:	175b      	asrs	r3, r3, #29
    1336:	2201      	movs	r2, #1
    1338:	4013      	ands	r3, r2
    133a:	2684      	movs	r6, #132	; 0x84
    133c:	0076      	lsls	r6, r6, #1
    133e:	19ba      	adds	r2, r7, r6
    1340:	6013      	str	r3, [r2, #0]
    1342:	193b      	adds	r3, r7, r4
    1344:	681a      	ldr	r2, [r3, #0]
    1346:	197b      	adds	r3, r7, r5
    1348:	681b      	ldr	r3, [r3, #0]
    134a:	18d2      	adds	r2, r2, r3
    134c:	19bb      	adds	r3, r7, r6
    134e:	681b      	ldr	r3, [r3, #0]
    1350:	18d3      	adds	r3, r2, r3
    1352:	1d7a      	adds	r2, r7, #5
    1354:	32ff      	adds	r2, #255	; 0xff
    1356:	6013      	str	r3, [r2, #0]
    1358:	4b53      	ldr	r3, [pc, #332]	; (14a8 <execute_next+0x1110>)
    135a:	22b2      	movs	r2, #178	; 0xb2
    135c:	0092      	lsls	r2, r2, #2
    135e:	4694      	mov	ip, r2
    1360:	44bc      	add	ip, r7
    1362:	4463      	add	r3, ip
    1364:	781a      	ldrb	r2, [r3, #0]
    1366:	1d7b      	adds	r3, r7, #5
    1368:	33ff      	adds	r3, #255	; 0xff
    136a:	6819      	ldr	r1, [r3, #0]
    136c:	4b4c      	ldr	r3, [pc, #304]	; (14a0 <execute_next+0x1108>)
    136e:	0092      	lsls	r2, r2, #2
    1370:	50d1      	str	r1, [r2, r3]
    1372:	1d7b      	adds	r3, r7, #5
    1374:	33ff      	adds	r3, #255	; 0xff
    1376:	681b      	ldr	r3, [r3, #0]
    1378:	0018      	movs	r0, r3
    137a:	f7ff fffe 	bl	ec <update_nz_flags>
    137e:	193b      	adds	r3, r7, r4
    1380:	6818      	ldr	r0, [r3, #0]
    1382:	19bb      	adds	r3, r7, r6
    1384:	681a      	ldr	r2, [r3, #0]
    1386:	197b      	adds	r3, r7, r5
    1388:	681b      	ldr	r3, [r3, #0]
    138a:	18d3      	adds	r3, r2, r3
    138c:	0019      	movs	r1, r3
    138e:	1d7b      	adds	r3, r7, #5
    1390:	33ff      	adds	r3, #255	; 0xff
    1392:	681b      	ldr	r3, [r3, #0]
    1394:	001a      	movs	r2, r3
    1396:	f7ff fffe 	bl	148 <update_vc_flags_in_addition>
    139a:	2300      	movs	r3, #0
    139c:	f001 fd5c 	bl	2e58 <execute_next+0x2ac0>
    13a0:	483c      	ldr	r0, [pc, #240]	; (1494 <execute_next+0x10fc>)
    13a2:	183b      	adds	r3, r7, r0
    13a4:	881b      	ldrh	r3, [r3, #0]
    13a6:	099b      	lsrs	r3, r3, #6
    13a8:	b29b      	uxth	r3, r3
    13aa:	059b      	lsls	r3, r3, #22
    13ac:	0d9a      	lsrs	r2, r3, #22
    13ae:	2383      	movs	r3, #131	; 0x83
    13b0:	005b      	lsls	r3, r3, #1
    13b2:	429a      	cmp	r2, r3
    13b4:	d000      	beq.n	13b8 <execute_next+0x1020>
    13b6:	e07f      	b.n	14b8 <execute_next+0x1120>
    13b8:	183b      	adds	r3, r7, r0
    13ba:	881b      	ldrh	r3, [r3, #0]
    13bc:	b2da      	uxtb	r2, r3
    13be:	4b3c      	ldr	r3, [pc, #240]	; (14b0 <execute_next+0x1118>)
    13c0:	21b2      	movs	r1, #178	; 0xb2
    13c2:	0089      	lsls	r1, r1, #2
    13c4:	468c      	mov	ip, r1
    13c6:	44bc      	add	ip, r7
    13c8:	4463      	add	r3, ip
    13ca:	2107      	movs	r1, #7
    13cc:	400a      	ands	r2, r1
    13ce:	701a      	strb	r2, [r3, #0]
    13d0:	183b      	adds	r3, r7, r0
    13d2:	881b      	ldrh	r3, [r3, #0]
    13d4:	08db      	lsrs	r3, r3, #3
    13d6:	b29b      	uxth	r3, r3
    13d8:	b2da      	uxtb	r2, r3
    13da:	4b36      	ldr	r3, [pc, #216]	; (14b4 <execute_next+0x111c>)
    13dc:	21b2      	movs	r1, #178	; 0xb2
    13de:	0089      	lsls	r1, r1, #2
    13e0:	468c      	mov	ip, r1
    13e2:	44bc      	add	ip, r7
    13e4:	4463      	add	r3, ip
    13e6:	2107      	movs	r1, #7
    13e8:	400a      	ands	r2, r1
    13ea:	701a      	strb	r2, [r3, #0]
    13ec:	4b30      	ldr	r3, [pc, #192]	; (14b0 <execute_next+0x1118>)
    13ee:	22b2      	movs	r2, #178	; 0xb2
    13f0:	0092      	lsls	r2, r2, #2
    13f2:	4694      	mov	ip, r2
    13f4:	44bc      	add	ip, r7
    13f6:	4463      	add	r3, ip
    13f8:	781a      	ldrb	r2, [r3, #0]
    13fa:	4b29      	ldr	r3, [pc, #164]	; (14a0 <execute_next+0x1108>)
    13fc:	0092      	lsls	r2, r2, #2
    13fe:	58d3      	ldr	r3, [r2, r3]
    1400:	2592      	movs	r5, #146	; 0x92
    1402:	006d      	lsls	r5, r5, #1
    1404:	197a      	adds	r2, r7, r5
    1406:	6013      	str	r3, [r2, #0]
    1408:	4b2a      	ldr	r3, [pc, #168]	; (14b4 <execute_next+0x111c>)
    140a:	22b2      	movs	r2, #178	; 0xb2
    140c:	0092      	lsls	r2, r2, #2
    140e:	4694      	mov	ip, r2
    1410:	44bc      	add	ip, r7
    1412:	4463      	add	r3, ip
    1414:	781a      	ldrb	r2, [r3, #0]
    1416:	4b22      	ldr	r3, [pc, #136]	; (14a0 <execute_next+0x1108>)
    1418:	0092      	lsls	r2, r2, #2
    141a:	58d3      	ldr	r3, [r2, r3]
    141c:	2690      	movs	r6, #144	; 0x90
    141e:	0076      	lsls	r6, r6, #1
    1420:	19ba      	adds	r2, r7, r6
    1422:	6013      	str	r3, [r2, #0]
    1424:	4b1e      	ldr	r3, [pc, #120]	; (14a0 <execute_next+0x1108>)
    1426:	6c1b      	ldr	r3, [r3, #64]	; 0x40
    1428:	175b      	asrs	r3, r3, #29
    142a:	2201      	movs	r2, #1
    142c:	4013      	ands	r3, r2
    142e:	218e      	movs	r1, #142	; 0x8e
    1430:	0049      	lsls	r1, r1, #1
    1432:	187a      	adds	r2, r7, r1
    1434:	6013      	str	r3, [r2, #0]
    1436:	197b      	adds	r3, r7, r5
    1438:	681a      	ldr	r2, [r3, #0]
    143a:	19bb      	adds	r3, r7, r6
    143c:	681b      	ldr	r3, [r3, #0]
    143e:	1ad2      	subs	r2, r2, r3
    1440:	187b      	adds	r3, r7, r1
    1442:	681b      	ldr	r3, [r3, #0]
    1444:	1ad3      	subs	r3, r2, r3
    1446:	248c      	movs	r4, #140	; 0x8c
    1448:	0064      	lsls	r4, r4, #1
    144a:	193a      	adds	r2, r7, r4
    144c:	6013      	str	r3, [r2, #0]
    144e:	4b18      	ldr	r3, [pc, #96]	; (14b0 <execute_next+0x1118>)
    1450:	22b2      	movs	r2, #178	; 0xb2
    1452:	0092      	lsls	r2, r2, #2
    1454:	4694      	mov	ip, r2
    1456:	44bc      	add	ip, r7
    1458:	4463      	add	r3, ip
    145a:	781a      	ldrb	r2, [r3, #0]
    145c:	193b      	adds	r3, r7, r4
    145e:	6819      	ldr	r1, [r3, #0]
    1460:	4b0f      	ldr	r3, [pc, #60]	; (14a0 <execute_next+0x1108>)
    1462:	0092      	lsls	r2, r2, #2
    1464:	50d1      	str	r1, [r2, r3]
    1466:	193b      	adds	r3, r7, r4
    1468:	681b      	ldr	r3, [r3, #0]
    146a:	0018      	movs	r0, r3
    146c:	f7ff fffe 	bl	ec <update_nz_flags>
    1470:	197b      	adds	r3, r7, r5
    1472:	6818      	ldr	r0, [r3, #0]
    1474:	218e      	movs	r1, #142	; 0x8e
    1476:	0049      	lsls	r1, r1, #1
    1478:	187b      	adds	r3, r7, r1
    147a:	681a      	ldr	r2, [r3, #0]
    147c:	19bb      	adds	r3, r7, r6
    147e:	681b      	ldr	r3, [r3, #0]
    1480:	18d3      	adds	r3, r2, r3
    1482:	0019      	movs	r1, r3
    1484:	193b      	adds	r3, r7, r4
    1486:	681b      	ldr	r3, [r3, #0]
    1488:	001a      	movs	r2, r3
    148a:	f7ff fffe 	bl	1e0 <update_vc_flags_in_subtraction>
    148e:	2300      	movs	r3, #0
    1490:	f001 fce2 	bl	2e58 <execute_next+0x2ac0>
    1494:	000002a6 	.word	0x000002a6
    1498:	fffffe3b 	.word	0xfffffe3b
    149c:	fffffe3a 	.word	0xfffffe3a
    14a0:	00000000 	.word	0x00000000
    14a4:	dfffffff 	.word	0xdfffffff
    14a8:	fffffe4f 	.word	0xfffffe4f
    14ac:	fffffe4e 	.word	0xfffffe4e
    14b0:	fffffe63 	.word	0xfffffe63
    14b4:	fffffe62 	.word	0xfffffe62
    14b8:	48ef      	ldr	r0, [pc, #956]	; (1878 <execute_next+0x14e0>)
    14ba:	183b      	adds	r3, r7, r0
    14bc:	881b      	ldrh	r3, [r3, #0]
    14be:	099b      	lsrs	r3, r3, #6
    14c0:	b29b      	uxth	r3, r3
    14c2:	059b      	lsls	r3, r3, #22
    14c4:	0d9a      	lsrs	r2, r3, #22
    14c6:	2308      	movs	r3, #8
    14c8:	33ff      	adds	r3, #255	; 0xff
    14ca:	429a      	cmp	r2, r3
    14cc:	d000      	beq.n	14d0 <execute_next+0x1138>
    14ce:	e07b      	b.n	15c8 <execute_next+0x1230>
    14d0:	183b      	adds	r3, r7, r0
    14d2:	881b      	ldrh	r3, [r3, #0]
    14d4:	b2da      	uxtb	r2, r3
    14d6:	4be9      	ldr	r3, [pc, #932]	; (187c <execute_next+0x14e4>)
    14d8:	21b2      	movs	r1, #178	; 0xb2
    14da:	0089      	lsls	r1, r1, #2
    14dc:	468c      	mov	ip, r1
    14de:	44bc      	add	ip, r7
    14e0:	4463      	add	r3, ip
    14e2:	2107      	movs	r1, #7
    14e4:	400a      	ands	r2, r1
    14e6:	701a      	strb	r2, [r3, #0]
    14e8:	183b      	adds	r3, r7, r0
    14ea:	881b      	ldrh	r3, [r3, #0]
    14ec:	08db      	lsrs	r3, r3, #3
    14ee:	b29b      	uxth	r3, r3
    14f0:	b2da      	uxtb	r2, r3
    14f2:	4be3      	ldr	r3, [pc, #908]	; (1880 <execute_next+0x14e8>)
    14f4:	21b2      	movs	r1, #178	; 0xb2
    14f6:	0089      	lsls	r1, r1, #2
    14f8:	468c      	mov	ip, r1
    14fa:	44bc      	add	ip, r7
    14fc:	4463      	add	r3, ip
    14fe:	2107      	movs	r1, #7
    1500:	400a      	ands	r2, r1
    1502:	701a      	strb	r2, [r3, #0]
    1504:	4bdd      	ldr	r3, [pc, #884]	; (187c <execute_next+0x14e4>)
    1506:	22b2      	movs	r2, #178	; 0xb2
    1508:	0092      	lsls	r2, r2, #2
    150a:	4694      	mov	ip, r2
    150c:	44bc      	add	ip, r7
    150e:	4463      	add	r3, ip
    1510:	781a      	ldrb	r2, [r3, #0]
    1512:	4bdc      	ldr	r3, [pc, #880]	; (1884 <execute_next+0x14ec>)
    1514:	0092      	lsls	r2, r2, #2
    1516:	58d3      	ldr	r3, [r2, r3]
    1518:	259c      	movs	r5, #156	; 0x9c
    151a:	006d      	lsls	r5, r5, #1
    151c:	197a      	adds	r2, r7, r5
    151e:	6013      	str	r3, [r2, #0]
    1520:	4bd7      	ldr	r3, [pc, #860]	; (1880 <execute_next+0x14e8>)
    1522:	22b2      	movs	r2, #178	; 0xb2
    1524:	0092      	lsls	r2, r2, #2
    1526:	4694      	mov	ip, r2
    1528:	44bc      	add	ip, r7
    152a:	4463      	add	r3, ip
    152c:	781a      	ldrb	r2, [r3, #0]
    152e:	4bd5      	ldr	r3, [pc, #852]	; (1884 <execute_next+0x14ec>)
    1530:	0092      	lsls	r2, r2, #2
    1532:	58d3      	ldr	r3, [r2, r3]
    1534:	001a      	movs	r2, r3
    1536:	231f      	movs	r3, #31
    1538:	4013      	ands	r3, r2
    153a:	249a      	movs	r4, #154	; 0x9a
    153c:	0064      	lsls	r4, r4, #1
    153e:	193a      	adds	r2, r7, r4
    1540:	6013      	str	r3, [r2, #0]
    1542:	197b      	adds	r3, r7, r5
    1544:	681a      	ldr	r2, [r3, #0]
    1546:	193b      	adds	r3, r7, r4
    1548:	681b      	ldr	r3, [r3, #0]
    154a:	41da      	rors	r2, r3
    154c:	0013      	movs	r3, r2
    154e:	2198      	movs	r1, #152	; 0x98
    1550:	0049      	lsls	r1, r1, #1
    1552:	187a      	adds	r2, r7, r1
    1554:	6013      	str	r3, [r2, #0]
    1556:	4bc9      	ldr	r3, [pc, #804]	; (187c <execute_next+0x14e4>)
    1558:	22b2      	movs	r2, #178	; 0xb2
    155a:	0092      	lsls	r2, r2, #2
    155c:	4694      	mov	ip, r2
    155e:	44bc      	add	ip, r7
    1560:	4463      	add	r3, ip
    1562:	781a      	ldrb	r2, [r3, #0]
    1564:	0008      	movs	r0, r1
    1566:	187b      	adds	r3, r7, r1
    1568:	6819      	ldr	r1, [r3, #0]
    156a:	4bc6      	ldr	r3, [pc, #792]	; (1884 <execute_next+0x14ec>)
    156c:	0092      	lsls	r2, r2, #2
    156e:	50d1      	str	r1, [r2, r3]
    1570:	183b      	adds	r3, r7, r0
    1572:	681b      	ldr	r3, [r3, #0]
    1574:	0018      	movs	r0, r3
    1576:	f7ff fffe 	bl	ec <update_nz_flags>
    157a:	193b      	adds	r3, r7, r4
    157c:	681b      	ldr	r3, [r3, #0]
    157e:	3b01      	subs	r3, #1
    1580:	197a      	adds	r2, r7, r5
    1582:	6812      	ldr	r2, [r2, #0]
    1584:	40da      	lsrs	r2, r3
    1586:	0013      	movs	r3, r2
    1588:	001a      	movs	r2, r3
    158a:	2301      	movs	r3, #1
    158c:	4013      	ands	r3, r2
    158e:	2296      	movs	r2, #150	; 0x96
    1590:	0052      	lsls	r2, r2, #1
    1592:	18b9      	adds	r1, r7, r2
    1594:	600b      	str	r3, [r1, #0]
    1596:	193b      	adds	r3, r7, r4
    1598:	681b      	ldr	r3, [r3, #0]
    159a:	2b00      	cmp	r3, #0
    159c:	d011      	beq.n	15c2 <execute_next+0x122a>
    159e:	18bb      	adds	r3, r7, r2
    15a0:	681b      	ldr	r3, [r3, #0]
    15a2:	2b00      	cmp	r3, #0
    15a4:	d007      	beq.n	15b6 <execute_next+0x121e>
    15a6:	4bb7      	ldr	r3, [pc, #732]	; (1884 <execute_next+0x14ec>)
    15a8:	6c1b      	ldr	r3, [r3, #64]	; 0x40
    15aa:	2280      	movs	r2, #128	; 0x80
    15ac:	0592      	lsls	r2, r2, #22
    15ae:	431a      	orrs	r2, r3
    15b0:	4bb4      	ldr	r3, [pc, #720]	; (1884 <execute_next+0x14ec>)
    15b2:	641a      	str	r2, [r3, #64]	; 0x40
    15b4:	e005      	b.n	15c2 <execute_next+0x122a>
    15b6:	4bb3      	ldr	r3, [pc, #716]	; (1884 <execute_next+0x14ec>)
    15b8:	6c1b      	ldr	r3, [r3, #64]	; 0x40
    15ba:	4ab3      	ldr	r2, [pc, #716]	; (1888 <execute_next+0x14f0>)
    15bc:	401a      	ands	r2, r3
    15be:	4bb1      	ldr	r3, [pc, #708]	; (1884 <execute_next+0x14ec>)
    15c0:	641a      	str	r2, [r3, #64]	; 0x40
    15c2:	2300      	movs	r3, #0
    15c4:	f001 fc48 	bl	2e58 <execute_next+0x2ac0>
    15c8:	48ab      	ldr	r0, [pc, #684]	; (1878 <execute_next+0x14e0>)
    15ca:	183b      	adds	r3, r7, r0
    15cc:	881b      	ldrh	r3, [r3, #0]
    15ce:	099b      	lsrs	r3, r3, #6
    15d0:	b29b      	uxth	r3, r3
    15d2:	059b      	lsls	r3, r3, #22
    15d4:	0d9a      	lsrs	r2, r3, #22
    15d6:	2384      	movs	r3, #132	; 0x84
    15d8:	005b      	lsls	r3, r3, #1
    15da:	429a      	cmp	r2, r3
    15dc:	d146      	bne.n	166c <execute_next+0x12d4>
    15de:	183b      	adds	r3, r7, r0
    15e0:	881b      	ldrh	r3, [r3, #0]
    15e2:	b2da      	uxtb	r2, r3
    15e4:	4ba9      	ldr	r3, [pc, #676]	; (188c <execute_next+0x14f4>)
    15e6:	21b2      	movs	r1, #178	; 0xb2
    15e8:	0089      	lsls	r1, r1, #2
    15ea:	468c      	mov	ip, r1
    15ec:	44bc      	add	ip, r7
    15ee:	4463      	add	r3, ip
    15f0:	2107      	movs	r1, #7
    15f2:	400a      	ands	r2, r1
    15f4:	701a      	strb	r2, [r3, #0]
    15f6:	183b      	adds	r3, r7, r0
    15f8:	881b      	ldrh	r3, [r3, #0]
    15fa:	08db      	lsrs	r3, r3, #3
    15fc:	b29b      	uxth	r3, r3
    15fe:	b2da      	uxtb	r2, r3
    1600:	4ba3      	ldr	r3, [pc, #652]	; (1890 <execute_next+0x14f8>)
    1602:	21b2      	movs	r1, #178	; 0xb2
    1604:	0089      	lsls	r1, r1, #2
    1606:	468c      	mov	ip, r1
    1608:	44bc      	add	ip, r7
    160a:	4463      	add	r3, ip
    160c:	2107      	movs	r1, #7
    160e:	400a      	ands	r2, r1
    1610:	701a      	strb	r2, [r3, #0]
    1612:	4b9e      	ldr	r3, [pc, #632]	; (188c <execute_next+0x14f4>)
    1614:	22b2      	movs	r2, #178	; 0xb2
    1616:	0092      	lsls	r2, r2, #2
    1618:	4694      	mov	ip, r2
    161a:	44bc      	add	ip, r7
    161c:	4463      	add	r3, ip
    161e:	781a      	ldrb	r2, [r3, #0]
    1620:	4b98      	ldr	r3, [pc, #608]	; (1884 <execute_next+0x14ec>)
    1622:	0092      	lsls	r2, r2, #2
    1624:	58d3      	ldr	r3, [r2, r3]
    1626:	21a4      	movs	r1, #164	; 0xa4
    1628:	0049      	lsls	r1, r1, #1
    162a:	187a      	adds	r2, r7, r1
    162c:	6013      	str	r3, [r2, #0]
    162e:	4b98      	ldr	r3, [pc, #608]	; (1890 <execute_next+0x14f8>)
    1630:	22b2      	movs	r2, #178	; 0xb2
    1632:	0092      	lsls	r2, r2, #2
    1634:	4694      	mov	ip, r2
    1636:	44bc      	add	ip, r7
    1638:	4463      	add	r3, ip
    163a:	781a      	ldrb	r2, [r3, #0]
    163c:	4b91      	ldr	r3, [pc, #580]	; (1884 <execute_next+0x14ec>)
    163e:	0092      	lsls	r2, r2, #2
    1640:	58d3      	ldr	r3, [r2, r3]
    1642:	22a2      	movs	r2, #162	; 0xa2
    1644:	0052      	lsls	r2, r2, #1
    1646:	18b8      	adds	r0, r7, r2
    1648:	6003      	str	r3, [r0, #0]
    164a:	187b      	adds	r3, r7, r1
    164c:	681b      	ldr	r3, [r3, #0]
    164e:	18ba      	adds	r2, r7, r2
    1650:	6812      	ldr	r2, [r2, #0]
    1652:	4013      	ands	r3, r2
    1654:	22a0      	movs	r2, #160	; 0xa0
    1656:	0052      	lsls	r2, r2, #1
    1658:	18b9      	adds	r1, r7, r2
    165a:	600b      	str	r3, [r1, #0]
    165c:	18bb      	adds	r3, r7, r2
    165e:	681b      	ldr	r3, [r3, #0]
    1660:	0018      	movs	r0, r3
    1662:	f7ff fffe 	bl	ec <update_nz_flags>
    1666:	2300      	movs	r3, #0
    1668:	f001 fbf6 	bl	2e58 <execute_next+0x2ac0>
    166c:	4882      	ldr	r0, [pc, #520]	; (1878 <execute_next+0x14e0>)
    166e:	183b      	adds	r3, r7, r0
    1670:	881b      	ldrh	r3, [r3, #0]
    1672:	099b      	lsrs	r3, r3, #6
    1674:	b29b      	uxth	r3, r3
    1676:	059b      	lsls	r3, r3, #22
    1678:	0d9a      	lsrs	r2, r3, #22
    167a:	230a      	movs	r3, #10
    167c:	33ff      	adds	r3, #255	; 0xff
    167e:	429a      	cmp	r2, r3
    1680:	d143      	bne.n	170a <execute_next+0x1372>
    1682:	183b      	adds	r3, r7, r0
    1684:	881b      	ldrh	r3, [r3, #0]
    1686:	b2da      	uxtb	r2, r3
    1688:	4b82      	ldr	r3, [pc, #520]	; (1894 <execute_next+0x14fc>)
    168a:	21b2      	movs	r1, #178	; 0xb2
    168c:	0089      	lsls	r1, r1, #2
    168e:	468c      	mov	ip, r1
    1690:	44bc      	add	ip, r7
    1692:	4463      	add	r3, ip
    1694:	2107      	movs	r1, #7
    1696:	400a      	ands	r2, r1
    1698:	701a      	strb	r2, [r3, #0]
    169a:	183b      	adds	r3, r7, r0
    169c:	881b      	ldrh	r3, [r3, #0]
    169e:	08db      	lsrs	r3, r3, #3
    16a0:	b29b      	uxth	r3, r3
    16a2:	b2da      	uxtb	r2, r3
    16a4:	4b7c      	ldr	r3, [pc, #496]	; (1898 <execute_next+0x1500>)
    16a6:	21b2      	movs	r1, #178	; 0xb2
    16a8:	0089      	lsls	r1, r1, #2
    16aa:	468c      	mov	ip, r1
    16ac:	44bc      	add	ip, r7
    16ae:	4463      	add	r3, ip
    16b0:	2107      	movs	r1, #7
    16b2:	400a      	ands	r2, r1
    16b4:	701a      	strb	r2, [r3, #0]
    16b6:	4b78      	ldr	r3, [pc, #480]	; (1898 <execute_next+0x1500>)
    16b8:	22b2      	movs	r2, #178	; 0xb2
    16ba:	0092      	lsls	r2, r2, #2
    16bc:	4694      	mov	ip, r2
    16be:	44bc      	add	ip, r7
    16c0:	4463      	add	r3, ip
    16c2:	781a      	ldrb	r2, [r3, #0]
    16c4:	4b6f      	ldr	r3, [pc, #444]	; (1884 <execute_next+0x14ec>)
    16c6:	0092      	lsls	r2, r2, #2
    16c8:	58d3      	ldr	r3, [r2, r3]
    16ca:	22aa      	movs	r2, #170	; 0xaa
    16cc:	0052      	lsls	r2, r2, #1
    16ce:	18b9      	adds	r1, r7, r2
    16d0:	600b      	str	r3, [r1, #0]
    16d2:	18bb      	adds	r3, r7, r2
    16d4:	681b      	ldr	r3, [r3, #0]
    16d6:	425b      	negs	r3, r3
    16d8:	21a8      	movs	r1, #168	; 0xa8
    16da:	0049      	lsls	r1, r1, #1
    16dc:	187a      	adds	r2, r7, r1
    16de:	6013      	str	r3, [r2, #0]
    16e0:	4b6c      	ldr	r3, [pc, #432]	; (1894 <execute_next+0x14fc>)
    16e2:	22b2      	movs	r2, #178	; 0xb2
    16e4:	0092      	lsls	r2, r2, #2
    16e6:	4694      	mov	ip, r2
    16e8:	44bc      	add	ip, r7
    16ea:	4463      	add	r3, ip
    16ec:	781a      	ldrb	r2, [r3, #0]
    16ee:	0008      	movs	r0, r1
    16f0:	187b      	adds	r3, r7, r1
    16f2:	6819      	ldr	r1, [r3, #0]
    16f4:	4b63      	ldr	r3, [pc, #396]	; (1884 <execute_next+0x14ec>)
    16f6:	0092      	lsls	r2, r2, #2
    16f8:	50d1      	str	r1, [r2, r3]
    16fa:	183b      	adds	r3, r7, r0
    16fc:	681b      	ldr	r3, [r3, #0]
    16fe:	0018      	movs	r0, r3
    1700:	f7ff fffe 	bl	ec <update_nz_flags>
    1704:	2300      	movs	r3, #0
    1706:	f001 fba7 	bl	2e58 <execute_next+0x2ac0>
    170a:	485b      	ldr	r0, [pc, #364]	; (1878 <execute_next+0x14e0>)
    170c:	183b      	adds	r3, r7, r0
    170e:	881b      	ldrh	r3, [r3, #0]
    1710:	099b      	lsrs	r3, r3, #6
    1712:	b29b      	uxth	r3, r3
    1714:	059b      	lsls	r3, r3, #22
    1716:	0d9a      	lsrs	r2, r3, #22
    1718:	2385      	movs	r3, #133	; 0x85
    171a:	005b      	lsls	r3, r3, #1
    171c:	429a      	cmp	r2, r3
    171e:	d14f      	bne.n	17c0 <execute_next+0x1428>
    1720:	183b      	adds	r3, r7, r0
    1722:	881b      	ldrh	r3, [r3, #0]
    1724:	b2da      	uxtb	r2, r3
    1726:	4b5d      	ldr	r3, [pc, #372]	; (189c <execute_next+0x1504>)
    1728:	21b2      	movs	r1, #178	; 0xb2
    172a:	0089      	lsls	r1, r1, #2
    172c:	468c      	mov	ip, r1
    172e:	44bc      	add	ip, r7
    1730:	4463      	add	r3, ip
    1732:	2107      	movs	r1, #7
    1734:	400a      	ands	r2, r1
    1736:	701a      	strb	r2, [r3, #0]
    1738:	183b      	adds	r3, r7, r0
    173a:	881b      	ldrh	r3, [r3, #0]
    173c:	08db      	lsrs	r3, r3, #3
    173e:	b29b      	uxth	r3, r3
    1740:	b2da      	uxtb	r2, r3
    1742:	4b57      	ldr	r3, [pc, #348]	; (18a0 <execute_next+0x1508>)
    1744:	21b2      	movs	r1, #178	; 0xb2
    1746:	0089      	lsls	r1, r1, #2
    1748:	468c      	mov	ip, r1
    174a:	44bc      	add	ip, r7
    174c:	4463      	add	r3, ip
    174e:	2107      	movs	r1, #7
    1750:	400a      	ands	r2, r1
    1752:	701a      	strb	r2, [r3, #0]
    1754:	4b51      	ldr	r3, [pc, #324]	; (189c <execute_next+0x1504>)
    1756:	22b2      	movs	r2, #178	; 0xb2
    1758:	0092      	lsls	r2, r2, #2
    175a:	4694      	mov	ip, r2
    175c:	44bc      	add	ip, r7
    175e:	4463      	add	r3, ip
    1760:	781a      	ldrb	r2, [r3, #0]
    1762:	4b48      	ldr	r3, [pc, #288]	; (1884 <execute_next+0x14ec>)
    1764:	0092      	lsls	r2, r2, #2
    1766:	58d3      	ldr	r3, [r2, r3]
    1768:	24b2      	movs	r4, #178	; 0xb2
    176a:	0064      	lsls	r4, r4, #1
    176c:	193a      	adds	r2, r7, r4
    176e:	6013      	str	r3, [r2, #0]
    1770:	4b4b      	ldr	r3, [pc, #300]	; (18a0 <execute_next+0x1508>)
    1772:	22b2      	movs	r2, #178	; 0xb2
    1774:	0092      	lsls	r2, r2, #2
    1776:	4694      	mov	ip, r2
    1778:	44bc      	add	ip, r7
    177a:	4463      	add	r3, ip
    177c:	781a      	ldrb	r2, [r3, #0]
    177e:	4b41      	ldr	r3, [pc, #260]	; (1884 <execute_next+0x14ec>)
    1780:	0092      	lsls	r2, r2, #2
    1782:	58d3      	ldr	r3, [r2, r3]
    1784:	25b0      	movs	r5, #176	; 0xb0
    1786:	006d      	lsls	r5, r5, #1
    1788:	197a      	adds	r2, r7, r5
    178a:	6013      	str	r3, [r2, #0]
    178c:	193b      	adds	r3, r7, r4
    178e:	681a      	ldr	r2, [r3, #0]
    1790:	197b      	adds	r3, r7, r5
    1792:	681b      	ldr	r3, [r3, #0]
    1794:	1ad3      	subs	r3, r2, r3
    1796:	26ae      	movs	r6, #174	; 0xae
    1798:	0076      	lsls	r6, r6, #1
    179a:	19ba      	adds	r2, r7, r6
    179c:	6013      	str	r3, [r2, #0]
    179e:	19bb      	adds	r3, r7, r6
    17a0:	681b      	ldr	r3, [r3, #0]
    17a2:	0018      	movs	r0, r3
    17a4:	f7ff fffe 	bl	ec <update_nz_flags>
    17a8:	193b      	adds	r3, r7, r4
    17aa:	681b      	ldr	r3, [r3, #0]
    17ac:	197a      	adds	r2, r7, r5
    17ae:	6811      	ldr	r1, [r2, #0]
    17b0:	19ba      	adds	r2, r7, r6
    17b2:	6812      	ldr	r2, [r2, #0]
    17b4:	0018      	movs	r0, r3
    17b6:	f7ff fffe 	bl	1e0 <update_vc_flags_in_subtraction>
    17ba:	2300      	movs	r3, #0
    17bc:	f001 fb4c 	bl	2e58 <execute_next+0x2ac0>
    17c0:	482d      	ldr	r0, [pc, #180]	; (1878 <execute_next+0x14e0>)
    17c2:	183b      	adds	r3, r7, r0
    17c4:	881b      	ldrh	r3, [r3, #0]
    17c6:	099b      	lsrs	r3, r3, #6
    17c8:	b29b      	uxth	r3, r3
    17ca:	059b      	lsls	r3, r3, #22
    17cc:	0d9a      	lsrs	r2, r3, #22
    17ce:	230c      	movs	r3, #12
    17d0:	33ff      	adds	r3, #255	; 0xff
    17d2:	429a      	cmp	r2, r3
    17d4:	d16a      	bne.n	18ac <execute_next+0x1514>
    17d6:	183b      	adds	r3, r7, r0
    17d8:	881b      	ldrh	r3, [r3, #0]
    17da:	b2da      	uxtb	r2, r3
    17dc:	4b31      	ldr	r3, [pc, #196]	; (18a4 <execute_next+0x150c>)
    17de:	21b2      	movs	r1, #178	; 0xb2
    17e0:	0089      	lsls	r1, r1, #2
    17e2:	468c      	mov	ip, r1
    17e4:	44bc      	add	ip, r7
    17e6:	4463      	add	r3, ip
    17e8:	2107      	movs	r1, #7
    17ea:	400a      	ands	r2, r1
    17ec:	701a      	strb	r2, [r3, #0]
    17ee:	183b      	adds	r3, r7, r0
    17f0:	881b      	ldrh	r3, [r3, #0]
    17f2:	08db      	lsrs	r3, r3, #3
    17f4:	b29b      	uxth	r3, r3
    17f6:	b2da      	uxtb	r2, r3
    17f8:	4b2b      	ldr	r3, [pc, #172]	; (18a8 <execute_next+0x1510>)
    17fa:	21b2      	movs	r1, #178	; 0xb2
    17fc:	0089      	lsls	r1, r1, #2
    17fe:	468c      	mov	ip, r1
    1800:	44bc      	add	ip, r7
    1802:	4463      	add	r3, ip
    1804:	2107      	movs	r1, #7
    1806:	400a      	ands	r2, r1
    1808:	701a      	strb	r2, [r3, #0]
    180a:	4b26      	ldr	r3, [pc, #152]	; (18a4 <execute_next+0x150c>)
    180c:	22b2      	movs	r2, #178	; 0xb2
    180e:	0092      	lsls	r2, r2, #2
    1810:	4694      	mov	ip, r2
    1812:	44bc      	add	ip, r7
    1814:	4463      	add	r3, ip
    1816:	781a      	ldrb	r2, [r3, #0]
    1818:	4b1a      	ldr	r3, [pc, #104]	; (1884 <execute_next+0x14ec>)
    181a:	0092      	lsls	r2, r2, #2
    181c:	58d3      	ldr	r3, [r2, r3]
    181e:	24ba      	movs	r4, #186	; 0xba
    1820:	0064      	lsls	r4, r4, #1
    1822:	193a      	adds	r2, r7, r4
    1824:	6013      	str	r3, [r2, #0]
    1826:	4b20      	ldr	r3, [pc, #128]	; (18a8 <execute_next+0x1510>)
    1828:	22b2      	movs	r2, #178	; 0xb2
    182a:	0092      	lsls	r2, r2, #2
    182c:	4694      	mov	ip, r2
    182e:	44bc      	add	ip, r7
    1830:	4463      	add	r3, ip
    1832:	781a      	ldrb	r2, [r3, #0]
    1834:	4b13      	ldr	r3, [pc, #76]	; (1884 <execute_next+0x14ec>)
    1836:	0092      	lsls	r2, r2, #2
    1838:	58d3      	ldr	r3, [r2, r3]
    183a:	25b8      	movs	r5, #184	; 0xb8
    183c:	006d      	lsls	r5, r5, #1
    183e:	197a      	adds	r2, r7, r5
    1840:	6013      	str	r3, [r2, #0]
    1842:	193b      	adds	r3, r7, r4
    1844:	681a      	ldr	r2, [r3, #0]
    1846:	197b      	adds	r3, r7, r5
    1848:	681b      	ldr	r3, [r3, #0]
    184a:	18d3      	adds	r3, r2, r3
    184c:	26b6      	movs	r6, #182	; 0xb6
    184e:	0076      	lsls	r6, r6, #1
    1850:	19ba      	adds	r2, r7, r6
    1852:	6013      	str	r3, [r2, #0]
    1854:	19bb      	adds	r3, r7, r6
    1856:	681b      	ldr	r3, [r3, #0]
    1858:	0018      	movs	r0, r3
    185a:	f7ff fffe 	bl	ec <update_nz_flags>
    185e:	193b      	adds	r3, r7, r4
    1860:	681b      	ldr	r3, [r3, #0]
    1862:	197a      	adds	r2, r7, r5
    1864:	6811      	ldr	r1, [r2, #0]
    1866:	19ba      	adds	r2, r7, r6
    1868:	6812      	ldr	r2, [r2, #0]
    186a:	0018      	movs	r0, r3
    186c:	f7ff fffe 	bl	148 <update_vc_flags_in_addition>
    1870:	2300      	movs	r3, #0
    1872:	f001 faf1 	bl	2e58 <execute_next+0x2ac0>
    1876:	46c0      	nop			; (mov r8, r8)
    1878:	000002a6 	.word	0x000002a6
    187c:	fffffe77 	.word	0xfffffe77
    1880:	fffffe76 	.word	0xfffffe76
    1884:	00000000 	.word	0x00000000
    1888:	dfffffff 	.word	0xdfffffff
    188c:	fffffe87 	.word	0xfffffe87
    1890:	fffffe86 	.word	0xfffffe86
    1894:	fffffe93 	.word	0xfffffe93
    1898:	fffffe92 	.word	0xfffffe92
    189c:	fffffea3 	.word	0xfffffea3
    18a0:	fffffea2 	.word	0xfffffea2
    18a4:	fffffeb3 	.word	0xfffffeb3
    18a8:	fffffeb2 	.word	0xfffffeb2
    18ac:	48d7      	ldr	r0, [pc, #860]	; (1c0c <execute_next+0x1874>)
    18ae:	183b      	adds	r3, r7, r0
    18b0:	881b      	ldrh	r3, [r3, #0]
    18b2:	099b      	lsrs	r3, r3, #6
    18b4:	b29b      	uxth	r3, r3
    18b6:	059b      	lsls	r3, r3, #22
    18b8:	0d9a      	lsrs	r2, r3, #22
    18ba:	2386      	movs	r3, #134	; 0x86
    18bc:	005b      	lsls	r3, r3, #1
    18be:	429a      	cmp	r2, r3
    18c0:	d153      	bne.n	196a <execute_next+0x15d2>
    18c2:	183b      	adds	r3, r7, r0
    18c4:	881b      	ldrh	r3, [r3, #0]
    18c6:	b2da      	uxtb	r2, r3
    18c8:	4bd1      	ldr	r3, [pc, #836]	; (1c10 <execute_next+0x1878>)
    18ca:	21b2      	movs	r1, #178	; 0xb2
    18cc:	0089      	lsls	r1, r1, #2
    18ce:	468c      	mov	ip, r1
    18d0:	44bc      	add	ip, r7
    18d2:	4463      	add	r3, ip
    18d4:	2107      	movs	r1, #7
    18d6:	400a      	ands	r2, r1
    18d8:	701a      	strb	r2, [r3, #0]
    18da:	183b      	adds	r3, r7, r0
    18dc:	881b      	ldrh	r3, [r3, #0]
    18de:	08db      	lsrs	r3, r3, #3
    18e0:	b29b      	uxth	r3, r3
    18e2:	b2da      	uxtb	r2, r3
    18e4:	4bcb      	ldr	r3, [pc, #812]	; (1c14 <execute_next+0x187c>)
    18e6:	21b2      	movs	r1, #178	; 0xb2
    18e8:	0089      	lsls	r1, r1, #2
    18ea:	468c      	mov	ip, r1
    18ec:	44bc      	add	ip, r7
    18ee:	4463      	add	r3, ip
    18f0:	2107      	movs	r1, #7
    18f2:	400a      	ands	r2, r1
    18f4:	701a      	strb	r2, [r3, #0]
    18f6:	4bc6      	ldr	r3, [pc, #792]	; (1c10 <execute_next+0x1878>)
    18f8:	22b2      	movs	r2, #178	; 0xb2
    18fa:	0092      	lsls	r2, r2, #2
    18fc:	4694      	mov	ip, r2
    18fe:	44bc      	add	ip, r7
    1900:	4463      	add	r3, ip
    1902:	781a      	ldrb	r2, [r3, #0]
    1904:	4bc4      	ldr	r3, [pc, #784]	; (1c18 <execute_next+0x1880>)
    1906:	0092      	lsls	r2, r2, #2
    1908:	58d3      	ldr	r3, [r2, r3]
    190a:	21c2      	movs	r1, #194	; 0xc2
    190c:	0049      	lsls	r1, r1, #1
    190e:	187a      	adds	r2, r7, r1
    1910:	6013      	str	r3, [r2, #0]
    1912:	4bc0      	ldr	r3, [pc, #768]	; (1c14 <execute_next+0x187c>)
    1914:	22b2      	movs	r2, #178	; 0xb2
    1916:	0092      	lsls	r2, r2, #2
    1918:	4694      	mov	ip, r2
    191a:	44bc      	add	ip, r7
    191c:	4463      	add	r3, ip
    191e:	781a      	ldrb	r2, [r3, #0]
    1920:	4bbd      	ldr	r3, [pc, #756]	; (1c18 <execute_next+0x1880>)
    1922:	0092      	lsls	r2, r2, #2
    1924:	58d3      	ldr	r3, [r2, r3]
    1926:	20c0      	movs	r0, #192	; 0xc0
    1928:	0040      	lsls	r0, r0, #1
    192a:	183a      	adds	r2, r7, r0
    192c:	6013      	str	r3, [r2, #0]
    192e:	187b      	adds	r3, r7, r1
    1930:	681a      	ldr	r2, [r3, #0]
    1932:	183b      	adds	r3, r7, r0
    1934:	681b      	ldr	r3, [r3, #0]
    1936:	4313      	orrs	r3, r2
    1938:	21be      	movs	r1, #190	; 0xbe
    193a:	0049      	lsls	r1, r1, #1
    193c:	187a      	adds	r2, r7, r1
    193e:	6013      	str	r3, [r2, #0]
    1940:	4bb3      	ldr	r3, [pc, #716]	; (1c10 <execute_next+0x1878>)
    1942:	22b2      	movs	r2, #178	; 0xb2
    1944:	0092      	lsls	r2, r2, #2
    1946:	4694      	mov	ip, r2
    1948:	44bc      	add	ip, r7
    194a:	4463      	add	r3, ip
    194c:	781a      	ldrb	r2, [r3, #0]
    194e:	0008      	movs	r0, r1
    1950:	187b      	adds	r3, r7, r1
    1952:	6819      	ldr	r1, [r3, #0]
    1954:	4bb0      	ldr	r3, [pc, #704]	; (1c18 <execute_next+0x1880>)
    1956:	0092      	lsls	r2, r2, #2
    1958:	50d1      	str	r1, [r2, r3]
    195a:	183b      	adds	r3, r7, r0
    195c:	681b      	ldr	r3, [r3, #0]
    195e:	0018      	movs	r0, r3
    1960:	f7ff fffe 	bl	ec <update_nz_flags>
    1964:	2300      	movs	r3, #0
    1966:	f001 fa77 	bl	2e58 <execute_next+0x2ac0>
    196a:	48a8      	ldr	r0, [pc, #672]	; (1c0c <execute_next+0x1874>)
    196c:	183b      	adds	r3, r7, r0
    196e:	881b      	ldrh	r3, [r3, #0]
    1970:	099b      	lsrs	r3, r3, #6
    1972:	b29b      	uxth	r3, r3
    1974:	059b      	lsls	r3, r3, #22
    1976:	0d9a      	lsrs	r2, r3, #22
    1978:	230e      	movs	r3, #14
    197a:	33ff      	adds	r3, #255	; 0xff
    197c:	429a      	cmp	r2, r3
    197e:	d153      	bne.n	1a28 <execute_next+0x1690>
    1980:	183b      	adds	r3, r7, r0
    1982:	881b      	ldrh	r3, [r3, #0]
    1984:	b2da      	uxtb	r2, r3
    1986:	4ba5      	ldr	r3, [pc, #660]	; (1c1c <execute_next+0x1884>)
    1988:	21b2      	movs	r1, #178	; 0xb2
    198a:	0089      	lsls	r1, r1, #2
    198c:	468c      	mov	ip, r1
    198e:	44bc      	add	ip, r7
    1990:	4463      	add	r3, ip
    1992:	2107      	movs	r1, #7
    1994:	400a      	ands	r2, r1
    1996:	701a      	strb	r2, [r3, #0]
    1998:	183b      	adds	r3, r7, r0
    199a:	881b      	ldrh	r3, [r3, #0]
    199c:	08db      	lsrs	r3, r3, #3
    199e:	b29b      	uxth	r3, r3
    19a0:	b2da      	uxtb	r2, r3
    19a2:	4b9f      	ldr	r3, [pc, #636]	; (1c20 <execute_next+0x1888>)
    19a4:	21b2      	movs	r1, #178	; 0xb2
    19a6:	0089      	lsls	r1, r1, #2
    19a8:	468c      	mov	ip, r1
    19aa:	44bc      	add	ip, r7
    19ac:	4463      	add	r3, ip
    19ae:	2107      	movs	r1, #7
    19b0:	400a      	ands	r2, r1
    19b2:	701a      	strb	r2, [r3, #0]
    19b4:	4b99      	ldr	r3, [pc, #612]	; (1c1c <execute_next+0x1884>)
    19b6:	22b2      	movs	r2, #178	; 0xb2
    19b8:	0092      	lsls	r2, r2, #2
    19ba:	4694      	mov	ip, r2
    19bc:	44bc      	add	ip, r7
    19be:	4463      	add	r3, ip
    19c0:	781a      	ldrb	r2, [r3, #0]
    19c2:	4b95      	ldr	r3, [pc, #596]	; (1c18 <execute_next+0x1880>)
    19c4:	0092      	lsls	r2, r2, #2
    19c6:	58d3      	ldr	r3, [r2, r3]
    19c8:	21ca      	movs	r1, #202	; 0xca
    19ca:	0049      	lsls	r1, r1, #1
    19cc:	187a      	adds	r2, r7, r1
    19ce:	6013      	str	r3, [r2, #0]
    19d0:	4b93      	ldr	r3, [pc, #588]	; (1c20 <execute_next+0x1888>)
    19d2:	22b2      	movs	r2, #178	; 0xb2
    19d4:	0092      	lsls	r2, r2, #2
    19d6:	4694      	mov	ip, r2
    19d8:	44bc      	add	ip, r7
    19da:	4463      	add	r3, ip
    19dc:	781a      	ldrb	r2, [r3, #0]
    19de:	4b8e      	ldr	r3, [pc, #568]	; (1c18 <execute_next+0x1880>)
    19e0:	0092      	lsls	r2, r2, #2
    19e2:	58d3      	ldr	r3, [r2, r3]
    19e4:	22c8      	movs	r2, #200	; 0xc8
    19e6:	0052      	lsls	r2, r2, #1
    19e8:	18b8      	adds	r0, r7, r2
    19ea:	6003      	str	r3, [r0, #0]
    19ec:	187b      	adds	r3, r7, r1
    19ee:	681b      	ldr	r3, [r3, #0]
    19f0:	18ba      	adds	r2, r7, r2
    19f2:	6812      	ldr	r2, [r2, #0]
    19f4:	4353      	muls	r3, r2
    19f6:	21c6      	movs	r1, #198	; 0xc6
    19f8:	0049      	lsls	r1, r1, #1
    19fa:	187a      	adds	r2, r7, r1
    19fc:	6013      	str	r3, [r2, #0]
    19fe:	4b87      	ldr	r3, [pc, #540]	; (1c1c <execute_next+0x1884>)
    1a00:	22b2      	movs	r2, #178	; 0xb2
    1a02:	0092      	lsls	r2, r2, #2
    1a04:	4694      	mov	ip, r2
    1a06:	44bc      	add	ip, r7
    1a08:	4463      	add	r3, ip
    1a0a:	781a      	ldrb	r2, [r3, #0]
    1a0c:	0008      	movs	r0, r1
    1a0e:	187b      	adds	r3, r7, r1
    1a10:	6819      	ldr	r1, [r3, #0]
    1a12:	4b81      	ldr	r3, [pc, #516]	; (1c18 <execute_next+0x1880>)
    1a14:	0092      	lsls	r2, r2, #2
    1a16:	50d1      	str	r1, [r2, r3]
    1a18:	183b      	adds	r3, r7, r0
    1a1a:	681b      	ldr	r3, [r3, #0]
    1a1c:	0018      	movs	r0, r3
    1a1e:	f7ff fffe 	bl	ec <update_nz_flags>
    1a22:	2300      	movs	r3, #0
    1a24:	f001 fa18 	bl	2e58 <execute_next+0x2ac0>
    1a28:	4878      	ldr	r0, [pc, #480]	; (1c0c <execute_next+0x1874>)
    1a2a:	183b      	adds	r3, r7, r0
    1a2c:	881b      	ldrh	r3, [r3, #0]
    1a2e:	099b      	lsrs	r3, r3, #6
    1a30:	b29b      	uxth	r3, r3
    1a32:	059b      	lsls	r3, r3, #22
    1a34:	0d9a      	lsrs	r2, r3, #22
    1a36:	2387      	movs	r3, #135	; 0x87
    1a38:	005b      	lsls	r3, r3, #1
    1a3a:	429a      	cmp	r2, r3
    1a3c:	d154      	bne.n	1ae8 <execute_next+0x1750>
    1a3e:	183b      	adds	r3, r7, r0
    1a40:	881b      	ldrh	r3, [r3, #0]
    1a42:	b2da      	uxtb	r2, r3
    1a44:	4b77      	ldr	r3, [pc, #476]	; (1c24 <execute_next+0x188c>)
    1a46:	21b2      	movs	r1, #178	; 0xb2
    1a48:	0089      	lsls	r1, r1, #2
    1a4a:	468c      	mov	ip, r1
    1a4c:	44bc      	add	ip, r7
    1a4e:	4463      	add	r3, ip
    1a50:	2107      	movs	r1, #7
    1a52:	400a      	ands	r2, r1
    1a54:	701a      	strb	r2, [r3, #0]
    1a56:	183b      	adds	r3, r7, r0
    1a58:	881b      	ldrh	r3, [r3, #0]
    1a5a:	08db      	lsrs	r3, r3, #3
    1a5c:	b29b      	uxth	r3, r3
    1a5e:	b2da      	uxtb	r2, r3
    1a60:	4b71      	ldr	r3, [pc, #452]	; (1c28 <execute_next+0x1890>)
    1a62:	21b2      	movs	r1, #178	; 0xb2
    1a64:	0089      	lsls	r1, r1, #2
    1a66:	468c      	mov	ip, r1
    1a68:	44bc      	add	ip, r7
    1a6a:	4463      	add	r3, ip
    1a6c:	2107      	movs	r1, #7
    1a6e:	400a      	ands	r2, r1
    1a70:	701a      	strb	r2, [r3, #0]
    1a72:	4b6c      	ldr	r3, [pc, #432]	; (1c24 <execute_next+0x188c>)
    1a74:	22b2      	movs	r2, #178	; 0xb2
    1a76:	0092      	lsls	r2, r2, #2
    1a78:	4694      	mov	ip, r2
    1a7a:	44bc      	add	ip, r7
    1a7c:	4463      	add	r3, ip
    1a7e:	781a      	ldrb	r2, [r3, #0]
    1a80:	4b65      	ldr	r3, [pc, #404]	; (1c18 <execute_next+0x1880>)
    1a82:	0092      	lsls	r2, r2, #2
    1a84:	58d3      	ldr	r3, [r2, r3]
    1a86:	21d2      	movs	r1, #210	; 0xd2
    1a88:	0049      	lsls	r1, r1, #1
    1a8a:	187a      	adds	r2, r7, r1
    1a8c:	6013      	str	r3, [r2, #0]
    1a8e:	4b66      	ldr	r3, [pc, #408]	; (1c28 <execute_next+0x1890>)
    1a90:	22b2      	movs	r2, #178	; 0xb2
    1a92:	0092      	lsls	r2, r2, #2
    1a94:	4694      	mov	ip, r2
    1a96:	44bc      	add	ip, r7
    1a98:	4463      	add	r3, ip
    1a9a:	781a      	ldrb	r2, [r3, #0]
    1a9c:	4b5e      	ldr	r3, [pc, #376]	; (1c18 <execute_next+0x1880>)
    1a9e:	0092      	lsls	r2, r2, #2
    1aa0:	58d3      	ldr	r3, [r2, r3]
    1aa2:	22d0      	movs	r2, #208	; 0xd0
    1aa4:	0052      	lsls	r2, r2, #1
    1aa6:	18b8      	adds	r0, r7, r2
    1aa8:	6003      	str	r3, [r0, #0]
    1aaa:	18bb      	adds	r3, r7, r2
    1aac:	681b      	ldr	r3, [r3, #0]
    1aae:	43da      	mvns	r2, r3
    1ab0:	187b      	adds	r3, r7, r1
    1ab2:	681b      	ldr	r3, [r3, #0]
    1ab4:	4013      	ands	r3, r2
    1ab6:	21ce      	movs	r1, #206	; 0xce
    1ab8:	0049      	lsls	r1, r1, #1
    1aba:	187a      	adds	r2, r7, r1
    1abc:	6013      	str	r3, [r2, #0]
    1abe:	4b59      	ldr	r3, [pc, #356]	; (1c24 <execute_next+0x188c>)
    1ac0:	22b2      	movs	r2, #178	; 0xb2
    1ac2:	0092      	lsls	r2, r2, #2
    1ac4:	4694      	mov	ip, r2
    1ac6:	44bc      	add	ip, r7
    1ac8:	4463      	add	r3, ip
    1aca:	781a      	ldrb	r2, [r3, #0]
    1acc:	0008      	movs	r0, r1
    1ace:	187b      	adds	r3, r7, r1
    1ad0:	6819      	ldr	r1, [r3, #0]
    1ad2:	4b51      	ldr	r3, [pc, #324]	; (1c18 <execute_next+0x1880>)
    1ad4:	0092      	lsls	r2, r2, #2
    1ad6:	50d1      	str	r1, [r2, r3]
    1ad8:	183b      	adds	r3, r7, r0
    1ada:	681b      	ldr	r3, [r3, #0]
    1adc:	0018      	movs	r0, r3
    1ade:	f7ff fffe 	bl	ec <update_nz_flags>
    1ae2:	2300      	movs	r3, #0
    1ae4:	f001 f9b8 	bl	2e58 <execute_next+0x2ac0>
    1ae8:	4848      	ldr	r0, [pc, #288]	; (1c0c <execute_next+0x1874>)
    1aea:	183b      	adds	r3, r7, r0
    1aec:	881b      	ldrh	r3, [r3, #0]
    1aee:	099b      	lsrs	r3, r3, #6
    1af0:	b29b      	uxth	r3, r3
    1af2:	059b      	lsls	r3, r3, #22
    1af4:	0d9a      	lsrs	r2, r3, #22
    1af6:	2310      	movs	r3, #16
    1af8:	33ff      	adds	r3, #255	; 0xff
    1afa:	429a      	cmp	r2, r3
    1afc:	d143      	bne.n	1b86 <execute_next+0x17ee>
    1afe:	183b      	adds	r3, r7, r0
    1b00:	881b      	ldrh	r3, [r3, #0]
    1b02:	b2da      	uxtb	r2, r3
    1b04:	4b49      	ldr	r3, [pc, #292]	; (1c2c <execute_next+0x1894>)
    1b06:	21b2      	movs	r1, #178	; 0xb2
    1b08:	0089      	lsls	r1, r1, #2
    1b0a:	468c      	mov	ip, r1
    1b0c:	44bc      	add	ip, r7
    1b0e:	4463      	add	r3, ip
    1b10:	2107      	movs	r1, #7
    1b12:	400a      	ands	r2, r1
    1b14:	701a      	strb	r2, [r3, #0]
    1b16:	183b      	adds	r3, r7, r0
    1b18:	881b      	ldrh	r3, [r3, #0]
    1b1a:	08db      	lsrs	r3, r3, #3
    1b1c:	b29b      	uxth	r3, r3
    1b1e:	b2da      	uxtb	r2, r3
    1b20:	4b43      	ldr	r3, [pc, #268]	; (1c30 <execute_next+0x1898>)
    1b22:	21b2      	movs	r1, #178	; 0xb2
    1b24:	0089      	lsls	r1, r1, #2
    1b26:	468c      	mov	ip, r1
    1b28:	44bc      	add	ip, r7
    1b2a:	4463      	add	r3, ip
    1b2c:	2107      	movs	r1, #7
    1b2e:	400a      	ands	r2, r1
    1b30:	701a      	strb	r2, [r3, #0]
    1b32:	4b3f      	ldr	r3, [pc, #252]	; (1c30 <execute_next+0x1898>)
    1b34:	22b2      	movs	r2, #178	; 0xb2
    1b36:	0092      	lsls	r2, r2, #2
    1b38:	4694      	mov	ip, r2
    1b3a:	44bc      	add	ip, r7
    1b3c:	4463      	add	r3, ip
    1b3e:	781a      	ldrb	r2, [r3, #0]
    1b40:	4b35      	ldr	r3, [pc, #212]	; (1c18 <execute_next+0x1880>)
    1b42:	0092      	lsls	r2, r2, #2
    1b44:	58d3      	ldr	r3, [r2, r3]
    1b46:	22d8      	movs	r2, #216	; 0xd8
    1b48:	0052      	lsls	r2, r2, #1
    1b4a:	18b9      	adds	r1, r7, r2
    1b4c:	600b      	str	r3, [r1, #0]
    1b4e:	18bb      	adds	r3, r7, r2
    1b50:	681b      	ldr	r3, [r3, #0]
    1b52:	43db      	mvns	r3, r3
    1b54:	21d6      	movs	r1, #214	; 0xd6
    1b56:	0049      	lsls	r1, r1, #1
    1b58:	187a      	adds	r2, r7, r1
    1b5a:	6013      	str	r3, [r2, #0]
    1b5c:	4b33      	ldr	r3, [pc, #204]	; (1c2c <execute_next+0x1894>)
    1b5e:	22b2      	movs	r2, #178	; 0xb2
    1b60:	0092      	lsls	r2, r2, #2
    1b62:	4694      	mov	ip, r2
    1b64:	44bc      	add	ip, r7
    1b66:	4463      	add	r3, ip
    1b68:	781a      	ldrb	r2, [r3, #0]
    1b6a:	0008      	movs	r0, r1
    1b6c:	187b      	adds	r3, r7, r1
    1b6e:	6819      	ldr	r1, [r3, #0]
    1b70:	4b29      	ldr	r3, [pc, #164]	; (1c18 <execute_next+0x1880>)
    1b72:	0092      	lsls	r2, r2, #2
    1b74:	50d1      	str	r1, [r2, r3]
    1b76:	183b      	adds	r3, r7, r0
    1b78:	681b      	ldr	r3, [r3, #0]
    1b7a:	0018      	movs	r0, r3
    1b7c:	f7ff fffe 	bl	ec <update_nz_flags>
    1b80:	2300      	movs	r3, #0
    1b82:	f001 f969 	bl	2e58 <execute_next+0x2ac0>
    1b86:	4821      	ldr	r0, [pc, #132]	; (1c0c <execute_next+0x1874>)
    1b88:	183b      	adds	r3, r7, r0
    1b8a:	881b      	ldrh	r3, [r3, #0]
    1b8c:	099b      	lsrs	r3, r3, #6
    1b8e:	b29b      	uxth	r3, r3
    1b90:	059b      	lsls	r3, r3, #22
    1b92:	0d9a      	lsrs	r2, r3, #22
    1b94:	238c      	movs	r3, #140	; 0x8c
    1b96:	005b      	lsls	r3, r3, #1
    1b98:	429a      	cmp	r2, r3
    1b9a:	d14f      	bne.n	1c3c <execute_next+0x18a4>
    1b9c:	183b      	adds	r3, r7, r0
    1b9e:	881b      	ldrh	r3, [r3, #0]
    1ba0:	b2da      	uxtb	r2, r3
    1ba2:	4b24      	ldr	r3, [pc, #144]	; (1c34 <execute_next+0x189c>)
    1ba4:	21b2      	movs	r1, #178	; 0xb2
    1ba6:	0089      	lsls	r1, r1, #2
    1ba8:	468c      	mov	ip, r1
    1baa:	44bc      	add	ip, r7
    1bac:	4463      	add	r3, ip
    1bae:	2107      	movs	r1, #7
    1bb0:	400a      	ands	r2, r1
    1bb2:	701a      	strb	r2, [r3, #0]
    1bb4:	183b      	adds	r3, r7, r0
    1bb6:	881b      	ldrh	r3, [r3, #0]
    1bb8:	08db      	lsrs	r3, r3, #3
    1bba:	b29b      	uxth	r3, r3
    1bbc:	b2da      	uxtb	r2, r3
    1bbe:	4b1e      	ldr	r3, [pc, #120]	; (1c38 <execute_next+0x18a0>)
    1bc0:	21b2      	movs	r1, #178	; 0xb2
    1bc2:	0089      	lsls	r1, r1, #2
    1bc4:	468c      	mov	ip, r1
    1bc6:	44bc      	add	ip, r7
    1bc8:	4463      	add	r3, ip
    1bca:	2107      	movs	r1, #7
    1bcc:	400a      	ands	r2, r1
    1bce:	701a      	strb	r2, [r3, #0]
    1bd0:	4b19      	ldr	r3, [pc, #100]	; (1c38 <execute_next+0x18a0>)
    1bd2:	22b2      	movs	r2, #178	; 0xb2
    1bd4:	0092      	lsls	r2, r2, #2
    1bd6:	4694      	mov	ip, r2
    1bd8:	44bc      	add	ip, r7
    1bda:	4463      	add	r3, ip
    1bdc:	781a      	ldrb	r2, [r3, #0]
    1bde:	4b0e      	ldr	r3, [pc, #56]	; (1c18 <execute_next+0x1880>)
    1be0:	0092      	lsls	r2, r2, #2
    1be2:	58d3      	ldr	r3, [r2, r3]
    1be4:	21dc      	movs	r1, #220	; 0xdc
    1be6:	0049      	lsls	r1, r1, #1
    1be8:	187a      	adds	r2, r7, r1
    1bea:	6013      	str	r3, [r2, #0]
    1bec:	4b11      	ldr	r3, [pc, #68]	; (1c34 <execute_next+0x189c>)
    1bee:	22b2      	movs	r2, #178	; 0xb2
    1bf0:	0092      	lsls	r2, r2, #2
    1bf2:	4694      	mov	ip, r2
    1bf4:	44bc      	add	ip, r7
    1bf6:	4463      	add	r3, ip
    1bf8:	781a      	ldrb	r2, [r3, #0]
    1bfa:	187b      	adds	r3, r7, r1
    1bfc:	6819      	ldr	r1, [r3, #0]
    1bfe:	4b06      	ldr	r3, [pc, #24]	; (1c18 <execute_next+0x1880>)
    1c00:	0092      	lsls	r2, r2, #2
    1c02:	50d1      	str	r1, [r2, r3]
    1c04:	2300      	movs	r3, #0
    1c06:	f001 f927 	bl	2e58 <execute_next+0x2ac0>
    1c0a:	46c0      	nop			; (mov r8, r8)
    1c0c:	000002a6 	.word	0x000002a6
    1c10:	fffffec3 	.word	0xfffffec3
    1c14:	fffffec2 	.word	0xfffffec2
    1c18:	00000000 	.word	0x00000000
    1c1c:	fffffed3 	.word	0xfffffed3
    1c20:	fffffed2 	.word	0xfffffed2
    1c24:	fffffee3 	.word	0xfffffee3
    1c28:	fffffee2 	.word	0xfffffee2
    1c2c:	fffffeef 	.word	0xfffffeef
    1c30:	fffffeee 	.word	0xfffffeee
    1c34:	fffffef7 	.word	0xfffffef7
    1c38:	fffffef6 	.word	0xfffffef6
    1c3c:	49d2      	ldr	r1, [pc, #840]	; (1f88 <execute_next+0x1bf0>)
    1c3e:	187b      	adds	r3, r7, r1
    1c40:	881b      	ldrh	r3, [r3, #0]
    1c42:	099b      	lsrs	r3, r3, #6
    1c44:	b29b      	uxth	r3, r3
    1c46:	059b      	lsls	r3, r3, #22
    1c48:	0d9a      	lsrs	r2, r3, #22
    1c4a:	2312      	movs	r3, #18
    1c4c:	33ff      	adds	r3, #255	; 0xff
    1c4e:	429a      	cmp	r2, r3
    1c50:	d13a      	bne.n	1cc8 <execute_next+0x1930>
    1c52:	0008      	movs	r0, r1
    1c54:	187b      	adds	r3, r7, r1
    1c56:	881b      	ldrh	r3, [r3, #0]
    1c58:	b2da      	uxtb	r2, r3
    1c5a:	24cc      	movs	r4, #204	; 0xcc
    1c5c:	34ff      	adds	r4, #255	; 0xff
    1c5e:	193b      	adds	r3, r7, r4
    1c60:	2107      	movs	r1, #7
    1c62:	400a      	ands	r2, r1
    1c64:	701a      	strb	r2, [r3, #0]
    1c66:	183b      	adds	r3, r7, r0
    1c68:	881b      	ldrh	r3, [r3, #0]
    1c6a:	08db      	lsrs	r3, r3, #3
    1c6c:	b29b      	uxth	r3, r3
    1c6e:	b2da      	uxtb	r2, r3
    1c70:	25e5      	movs	r5, #229	; 0xe5
    1c72:	006d      	lsls	r5, r5, #1
    1c74:	197b      	adds	r3, r7, r5
    1c76:	2107      	movs	r1, #7
    1c78:	400a      	ands	r2, r1
    1c7a:	701a      	strb	r2, [r3, #0]
    1c7c:	0020      	movs	r0, r4
    1c7e:	183b      	adds	r3, r7, r0
    1c80:	781a      	ldrb	r2, [r3, #0]
    1c82:	4bc2      	ldr	r3, [pc, #776]	; (1f8c <execute_next+0x1bf4>)
    1c84:	0092      	lsls	r2, r2, #2
    1c86:	58d3      	ldr	r3, [r2, r3]
    1c88:	21e2      	movs	r1, #226	; 0xe2
    1c8a:	0049      	lsls	r1, r1, #1
    1c8c:	187a      	adds	r2, r7, r1
    1c8e:	6013      	str	r3, [r2, #0]
    1c90:	197b      	adds	r3, r7, r5
    1c92:	781b      	ldrb	r3, [r3, #0]
    1c94:	3308      	adds	r3, #8
    1c96:	001a      	movs	r2, r3
    1c98:	4bbc      	ldr	r3, [pc, #752]	; (1f8c <execute_next+0x1bf4>)
    1c9a:	0092      	lsls	r2, r2, #2
    1c9c:	58d3      	ldr	r3, [r2, r3]
    1c9e:	24e0      	movs	r4, #224	; 0xe0
    1ca0:	0064      	lsls	r4, r4, #1
    1ca2:	193a      	adds	r2, r7, r4
    1ca4:	6013      	str	r3, [r2, #0]
    1ca6:	187b      	adds	r3, r7, r1
    1ca8:	681a      	ldr	r2, [r3, #0]
    1caa:	193b      	adds	r3, r7, r4
    1cac:	681b      	ldr	r3, [r3, #0]
    1cae:	18d3      	adds	r3, r2, r3
    1cb0:	187a      	adds	r2, r7, r1
    1cb2:	6013      	str	r3, [r2, #0]
    1cb4:	183b      	adds	r3, r7, r0
    1cb6:	781a      	ldrb	r2, [r3, #0]
    1cb8:	187b      	adds	r3, r7, r1
    1cba:	6819      	ldr	r1, [r3, #0]
    1cbc:	4bb3      	ldr	r3, [pc, #716]	; (1f8c <execute_next+0x1bf4>)
    1cbe:	0092      	lsls	r2, r2, #2
    1cc0:	50d1      	str	r1, [r2, r3]
    1cc2:	2300      	movs	r3, #0
    1cc4:	f001 f8c8 	bl	2e58 <execute_next+0x2ac0>
    1cc8:	49af      	ldr	r1, [pc, #700]	; (1f88 <execute_next+0x1bf0>)
    1cca:	187b      	adds	r3, r7, r1
    1ccc:	881b      	ldrh	r3, [r3, #0]
    1cce:	099b      	lsrs	r3, r3, #6
    1cd0:	b29b      	uxth	r3, r3
    1cd2:	059b      	lsls	r3, r3, #22
    1cd4:	0d9a      	lsrs	r2, r3, #22
    1cd6:	231a      	movs	r3, #26
    1cd8:	33ff      	adds	r3, #255	; 0xff
    1cda:	429a      	cmp	r2, r3
    1cdc:	d137      	bne.n	1d4e <execute_next+0x19b6>
    1cde:	0008      	movs	r0, r1
    1ce0:	187b      	adds	r3, r7, r1
    1ce2:	881b      	ldrh	r3, [r3, #0]
    1ce4:	b2da      	uxtb	r2, r3
    1ce6:	24d8      	movs	r4, #216	; 0xd8
    1ce8:	34ff      	adds	r4, #255	; 0xff
    1cea:	193b      	adds	r3, r7, r4
    1cec:	2107      	movs	r1, #7
    1cee:	400a      	ands	r2, r1
    1cf0:	701a      	strb	r2, [r3, #0]
    1cf2:	183b      	adds	r3, r7, r0
    1cf4:	881b      	ldrh	r3, [r3, #0]
    1cf6:	08db      	lsrs	r3, r3, #3
    1cf8:	b29b      	uxth	r3, r3
    1cfa:	b2da      	uxtb	r2, r3
    1cfc:	25eb      	movs	r5, #235	; 0xeb
    1cfe:	006d      	lsls	r5, r5, #1
    1d00:	197b      	adds	r3, r7, r5
    1d02:	2107      	movs	r1, #7
    1d04:	400a      	ands	r2, r1
    1d06:	701a      	strb	r2, [r3, #0]
    1d08:	0021      	movs	r1, r4
    1d0a:	187b      	adds	r3, r7, r1
    1d0c:	781a      	ldrb	r2, [r3, #0]
    1d0e:	4b9f      	ldr	r3, [pc, #636]	; (1f8c <execute_next+0x1bf4>)
    1d10:	0092      	lsls	r2, r2, #2
    1d12:	58d3      	ldr	r3, [r2, r3]
    1d14:	20e8      	movs	r0, #232	; 0xe8
    1d16:	0040      	lsls	r0, r0, #1
    1d18:	183a      	adds	r2, r7, r0
    1d1a:	6013      	str	r3, [r2, #0]
    1d1c:	197b      	adds	r3, r7, r5
    1d1e:	781b      	ldrb	r3, [r3, #0]
    1d20:	3308      	adds	r3, #8
    1d22:	001a      	movs	r2, r3
    1d24:	4b99      	ldr	r3, [pc, #612]	; (1f8c <execute_next+0x1bf4>)
    1d26:	0092      	lsls	r2, r2, #2
    1d28:	58d3      	ldr	r3, [r2, r3]
    1d2a:	22e6      	movs	r2, #230	; 0xe6
    1d2c:	0052      	lsls	r2, r2, #1
    1d2e:	18bc      	adds	r4, r7, r2
    1d30:	6023      	str	r3, [r4, #0]
    1d32:	18bb      	adds	r3, r7, r2
    1d34:	681b      	ldr	r3, [r3, #0]
    1d36:	183a      	adds	r2, r7, r0
    1d38:	6013      	str	r3, [r2, #0]
    1d3a:	187b      	adds	r3, r7, r1
    1d3c:	781a      	ldrb	r2, [r3, #0]
    1d3e:	183b      	adds	r3, r7, r0
    1d40:	6819      	ldr	r1, [r3, #0]
    1d42:	4b92      	ldr	r3, [pc, #584]	; (1f8c <execute_next+0x1bf4>)
    1d44:	0092      	lsls	r2, r2, #2
    1d46:	50d1      	str	r1, [r2, r3]
    1d48:	2300      	movs	r3, #0
    1d4a:	f001 f885 	bl	2e58 <execute_next+0x2ac0>
    1d4e:	498e      	ldr	r1, [pc, #568]	; (1f88 <execute_next+0x1bf0>)
    1d50:	187b      	adds	r3, r7, r1
    1d52:	881b      	ldrh	r3, [r3, #0]
    1d54:	099b      	lsrs	r3, r3, #6
    1d56:	b29b      	uxth	r3, r3
    1d58:	059b      	lsls	r3, r3, #22
    1d5a:	0d9a      	lsrs	r2, r3, #22
    1d5c:	2389      	movs	r3, #137	; 0x89
    1d5e:	005b      	lsls	r3, r3, #1
    1d60:	429a      	cmp	r2, r3
    1d62:	d13c      	bne.n	1dde <execute_next+0x1a46>
    1d64:	0008      	movs	r0, r1
    1d66:	187b      	adds	r3, r7, r1
    1d68:	881b      	ldrh	r3, [r3, #0]
    1d6a:	b2da      	uxtb	r2, r3
    1d6c:	24e4      	movs	r4, #228	; 0xe4
    1d6e:	34ff      	adds	r4, #255	; 0xff
    1d70:	193b      	adds	r3, r7, r4
    1d72:	2107      	movs	r1, #7
    1d74:	400a      	ands	r2, r1
    1d76:	701a      	strb	r2, [r3, #0]
    1d78:	183b      	adds	r3, r7, r0
    1d7a:	881b      	ldrh	r3, [r3, #0]
    1d7c:	08db      	lsrs	r3, r3, #3
    1d7e:	b29b      	uxth	r3, r3
    1d80:	b2da      	uxtb	r2, r3
    1d82:	25f1      	movs	r5, #241	; 0xf1
    1d84:	006d      	lsls	r5, r5, #1
    1d86:	197b      	adds	r3, r7, r5
    1d88:	2107      	movs	r1, #7
    1d8a:	400a      	ands	r2, r1
    1d8c:	701a      	strb	r2, [r3, #0]
    1d8e:	0020      	movs	r0, r4
    1d90:	183b      	adds	r3, r7, r0
    1d92:	781b      	ldrb	r3, [r3, #0]
    1d94:	3308      	adds	r3, #8
    1d96:	001a      	movs	r2, r3
    1d98:	4b7c      	ldr	r3, [pc, #496]	; (1f8c <execute_next+0x1bf4>)
    1d9a:	0092      	lsls	r2, r2, #2
    1d9c:	58d3      	ldr	r3, [r2, r3]
    1d9e:	21ee      	movs	r1, #238	; 0xee
    1da0:	0049      	lsls	r1, r1, #1
    1da2:	187a      	adds	r2, r7, r1
    1da4:	6013      	str	r3, [r2, #0]
    1da6:	197b      	adds	r3, r7, r5
    1da8:	781a      	ldrb	r2, [r3, #0]
    1daa:	4b78      	ldr	r3, [pc, #480]	; (1f8c <execute_next+0x1bf4>)
    1dac:	0092      	lsls	r2, r2, #2
    1dae:	58d3      	ldr	r3, [r2, r3]
    1db0:	24ec      	movs	r4, #236	; 0xec
    1db2:	0064      	lsls	r4, r4, #1
    1db4:	193a      	adds	r2, r7, r4
    1db6:	6013      	str	r3, [r2, #0]
    1db8:	187b      	adds	r3, r7, r1
    1dba:	681a      	ldr	r2, [r3, #0]
    1dbc:	193b      	adds	r3, r7, r4
    1dbe:	681b      	ldr	r3, [r3, #0]
    1dc0:	18d3      	adds	r3, r2, r3
    1dc2:	187a      	adds	r2, r7, r1
    1dc4:	6013      	str	r3, [r2, #0]
    1dc6:	183b      	adds	r3, r7, r0
    1dc8:	781b      	ldrb	r3, [r3, #0]
    1dca:	3308      	adds	r3, #8
    1dcc:	001a      	movs	r2, r3
    1dce:	187b      	adds	r3, r7, r1
    1dd0:	6819      	ldr	r1, [r3, #0]
    1dd2:	4b6e      	ldr	r3, [pc, #440]	; (1f8c <execute_next+0x1bf4>)
    1dd4:	0092      	lsls	r2, r2, #2
    1dd6:	50d1      	str	r1, [r2, r3]
    1dd8:	2300      	movs	r3, #0
    1dda:	f001 f83d 	bl	2e58 <execute_next+0x2ac0>
    1dde:	496a      	ldr	r1, [pc, #424]	; (1f88 <execute_next+0x1bf0>)
    1de0:	187b      	adds	r3, r7, r1
    1de2:	881b      	ldrh	r3, [r3, #0]
    1de4:	099b      	lsrs	r3, r3, #6
    1de6:	b29b      	uxth	r3, r3
    1de8:	059b      	lsls	r3, r3, #22
    1dea:	0d9a      	lsrs	r2, r3, #22
    1dec:	238d      	movs	r3, #141	; 0x8d
    1dee:	005b      	lsls	r3, r3, #1
    1df0:	429a      	cmp	r2, r3
    1df2:	d139      	bne.n	1e68 <execute_next+0x1ad0>
    1df4:	0008      	movs	r0, r1
    1df6:	187b      	adds	r3, r7, r1
    1df8:	881b      	ldrh	r3, [r3, #0]
    1dfa:	b2da      	uxtb	r2, r3
    1dfc:	24f0      	movs	r4, #240	; 0xf0
    1dfe:	34ff      	adds	r4, #255	; 0xff
    1e00:	193b      	adds	r3, r7, r4
    1e02:	2107      	movs	r1, #7
    1e04:	400a      	ands	r2, r1
    1e06:	701a      	strb	r2, [r3, #0]
    1e08:	183b      	adds	r3, r7, r0
    1e0a:	881b      	ldrh	r3, [r3, #0]
    1e0c:	08db      	lsrs	r3, r3, #3
    1e0e:	b29b      	uxth	r3, r3
    1e10:	b2da      	uxtb	r2, r3
    1e12:	25f7      	movs	r5, #247	; 0xf7
    1e14:	006d      	lsls	r5, r5, #1
    1e16:	197b      	adds	r3, r7, r5
    1e18:	2107      	movs	r1, #7
    1e1a:	400a      	ands	r2, r1
    1e1c:	701a      	strb	r2, [r3, #0]
    1e1e:	0021      	movs	r1, r4
    1e20:	187b      	adds	r3, r7, r1
    1e22:	781b      	ldrb	r3, [r3, #0]
    1e24:	3308      	adds	r3, #8
    1e26:	001a      	movs	r2, r3
    1e28:	4b58      	ldr	r3, [pc, #352]	; (1f8c <execute_next+0x1bf4>)
    1e2a:	0092      	lsls	r2, r2, #2
    1e2c:	58d3      	ldr	r3, [r2, r3]
    1e2e:	20f4      	movs	r0, #244	; 0xf4
    1e30:	0040      	lsls	r0, r0, #1
    1e32:	183a      	adds	r2, r7, r0
    1e34:	6013      	str	r3, [r2, #0]
    1e36:	197b      	adds	r3, r7, r5
    1e38:	781a      	ldrb	r2, [r3, #0]
    1e3a:	4b54      	ldr	r3, [pc, #336]	; (1f8c <execute_next+0x1bf4>)
    1e3c:	0092      	lsls	r2, r2, #2
    1e3e:	58d3      	ldr	r3, [r2, r3]
    1e40:	22f2      	movs	r2, #242	; 0xf2
    1e42:	0052      	lsls	r2, r2, #1
    1e44:	18bc      	adds	r4, r7, r2
    1e46:	6023      	str	r3, [r4, #0]
    1e48:	18bb      	adds	r3, r7, r2
    1e4a:	681b      	ldr	r3, [r3, #0]
    1e4c:	183a      	adds	r2, r7, r0
    1e4e:	6013      	str	r3, [r2, #0]
    1e50:	187b      	adds	r3, r7, r1
    1e52:	781b      	ldrb	r3, [r3, #0]
    1e54:	3308      	adds	r3, #8
    1e56:	001a      	movs	r2, r3
    1e58:	183b      	adds	r3, r7, r0
    1e5a:	6819      	ldr	r1, [r3, #0]
    1e5c:	4b4b      	ldr	r3, [pc, #300]	; (1f8c <execute_next+0x1bf4>)
    1e5e:	0092      	lsls	r2, r2, #2
    1e60:	50d1      	str	r1, [r2, r3]
    1e62:	2300      	movs	r3, #0
    1e64:	f000 fff8 	bl	2e58 <execute_next+0x2ac0>
    1e68:	4947      	ldr	r1, [pc, #284]	; (1f88 <execute_next+0x1bf0>)
    1e6a:	187b      	adds	r3, r7, r1
    1e6c:	881b      	ldrh	r3, [r3, #0]
    1e6e:	099b      	lsrs	r3, r3, #6
    1e70:	b29b      	uxth	r3, r3
    1e72:	059b      	lsls	r3, r3, #22
    1e74:	0d9a      	lsrs	r2, r3, #22
    1e76:	2314      	movs	r3, #20
    1e78:	33ff      	adds	r3, #255	; 0xff
    1e7a:	429a      	cmp	r2, r3
    1e7c:	d13e      	bne.n	1efc <execute_next+0x1b64>
    1e7e:	0008      	movs	r0, r1
    1e80:	187b      	adds	r3, r7, r1
    1e82:	881b      	ldrh	r3, [r3, #0]
    1e84:	b2da      	uxtb	r2, r3
    1e86:	24fc      	movs	r4, #252	; 0xfc
    1e88:	34ff      	adds	r4, #255	; 0xff
    1e8a:	193b      	adds	r3, r7, r4
    1e8c:	2107      	movs	r1, #7
    1e8e:	400a      	ands	r2, r1
    1e90:	701a      	strb	r2, [r3, #0]
    1e92:	183b      	adds	r3, r7, r0
    1e94:	881b      	ldrh	r3, [r3, #0]
    1e96:	08db      	lsrs	r3, r3, #3
    1e98:	b29b      	uxth	r3, r3
    1e9a:	b2da      	uxtb	r2, r3
    1e9c:	25fd      	movs	r5, #253	; 0xfd
    1e9e:	006d      	lsls	r5, r5, #1
    1ea0:	197b      	adds	r3, r7, r5
    1ea2:	2107      	movs	r1, #7
    1ea4:	400a      	ands	r2, r1
    1ea6:	701a      	strb	r2, [r3, #0]
    1ea8:	0020      	movs	r0, r4
    1eaa:	183b      	adds	r3, r7, r0
    1eac:	781b      	ldrb	r3, [r3, #0]
    1eae:	3308      	adds	r3, #8
    1eb0:	001a      	movs	r2, r3
    1eb2:	4b36      	ldr	r3, [pc, #216]	; (1f8c <execute_next+0x1bf4>)
    1eb4:	0092      	lsls	r2, r2, #2
    1eb6:	58d3      	ldr	r3, [r2, r3]
    1eb8:	21fa      	movs	r1, #250	; 0xfa
    1eba:	0049      	lsls	r1, r1, #1
    1ebc:	187a      	adds	r2, r7, r1
    1ebe:	6013      	str	r3, [r2, #0]
    1ec0:	197b      	adds	r3, r7, r5
    1ec2:	781b      	ldrb	r3, [r3, #0]
    1ec4:	3308      	adds	r3, #8
    1ec6:	001a      	movs	r2, r3
    1ec8:	4b30      	ldr	r3, [pc, #192]	; (1f8c <execute_next+0x1bf4>)
    1eca:	0092      	lsls	r2, r2, #2
    1ecc:	58d3      	ldr	r3, [r2, r3]
    1ece:	24f8      	movs	r4, #248	; 0xf8
    1ed0:	0064      	lsls	r4, r4, #1
    1ed2:	193a      	adds	r2, r7, r4
    1ed4:	6013      	str	r3, [r2, #0]
    1ed6:	187b      	adds	r3, r7, r1
    1ed8:	681a      	ldr	r2, [r3, #0]
    1eda:	193b      	adds	r3, r7, r4
    1edc:	681b      	ldr	r3, [r3, #0]
    1ede:	18d3      	adds	r3, r2, r3
    1ee0:	187a      	adds	r2, r7, r1
    1ee2:	6013      	str	r3, [r2, #0]
    1ee4:	183b      	adds	r3, r7, r0
    1ee6:	781b      	ldrb	r3, [r3, #0]
    1ee8:	3308      	adds	r3, #8
    1eea:	001a      	movs	r2, r3
    1eec:	187b      	adds	r3, r7, r1
    1eee:	6819      	ldr	r1, [r3, #0]
    1ef0:	4b26      	ldr	r3, [pc, #152]	; (1f8c <execute_next+0x1bf4>)
    1ef2:	0092      	lsls	r2, r2, #2
    1ef4:	50d1      	str	r1, [r2, r3]
    1ef6:	2300      	movs	r3, #0
    1ef8:	f000 ffae 	bl	2e58 <execute_next+0x2ac0>
    1efc:	4922      	ldr	r1, [pc, #136]	; (1f88 <execute_next+0x1bf0>)
    1efe:	187b      	adds	r3, r7, r1
    1f00:	881b      	ldrh	r3, [r3, #0]
    1f02:	099b      	lsrs	r3, r3, #6
    1f04:	b29b      	uxth	r3, r3
    1f06:	059b      	lsls	r3, r3, #22
    1f08:	0d9a      	lsrs	r2, r3, #22
    1f0a:	231c      	movs	r3, #28
    1f0c:	33ff      	adds	r3, #255	; 0xff
    1f0e:	429a      	cmp	r2, r3
    1f10:	d142      	bne.n	1f98 <execute_next+0x1c00>
    1f12:	0008      	movs	r0, r1
    1f14:	187b      	adds	r3, r7, r1
    1f16:	881b      	ldrh	r3, [r3, #0]
    1f18:	b2da      	uxtb	r2, r3
    1f1a:	4c1d      	ldr	r4, [pc, #116]	; (1f90 <execute_next+0x1bf8>)
    1f1c:	193b      	adds	r3, r7, r4
    1f1e:	2107      	movs	r1, #7
    1f20:	400a      	ands	r2, r1
    1f22:	701a      	strb	r2, [r3, #0]
    1f24:	183b      	adds	r3, r7, r0
    1f26:	881b      	ldrh	r3, [r3, #0]
    1f28:	08db      	lsrs	r3, r3, #3
    1f2a:	b29b      	uxth	r3, r3
    1f2c:	b2da      	uxtb	r2, r3
    1f2e:	4d19      	ldr	r5, [pc, #100]	; (1f94 <execute_next+0x1bfc>)
    1f30:	197b      	adds	r3, r7, r5
    1f32:	2107      	movs	r1, #7
    1f34:	400a      	ands	r2, r1
    1f36:	701a      	strb	r2, [r3, #0]
    1f38:	0021      	movs	r1, r4
    1f3a:	187b      	adds	r3, r7, r1
    1f3c:	781b      	ldrb	r3, [r3, #0]
    1f3e:	3308      	adds	r3, #8
    1f40:	001a      	movs	r2, r3
    1f42:	4b12      	ldr	r3, [pc, #72]	; (1f8c <execute_next+0x1bf4>)
    1f44:	0092      	lsls	r2, r2, #2
    1f46:	58d3      	ldr	r3, [r2, r3]
    1f48:	2080      	movs	r0, #128	; 0x80
    1f4a:	0080      	lsls	r0, r0, #2
    1f4c:	183a      	adds	r2, r7, r0
    1f4e:	6013      	str	r3, [r2, #0]
    1f50:	197b      	adds	r3, r7, r5
    1f52:	781b      	ldrb	r3, [r3, #0]
    1f54:	3308      	adds	r3, #8
    1f56:	001a      	movs	r2, r3
    1f58:	4b0c      	ldr	r3, [pc, #48]	; (1f8c <execute_next+0x1bf4>)
    1f5a:	0092      	lsls	r2, r2, #2
    1f5c:	58d3      	ldr	r3, [r2, r3]
    1f5e:	22fe      	movs	r2, #254	; 0xfe
    1f60:	0052      	lsls	r2, r2, #1
    1f62:	18bc      	adds	r4, r7, r2
    1f64:	6023      	str	r3, [r4, #0]
    1f66:	18bb      	adds	r3, r7, r2
    1f68:	681b      	ldr	r3, [r3, #0]
    1f6a:	183a      	adds	r2, r7, r0
    1f6c:	6013      	str	r3, [r2, #0]
    1f6e:	187b      	adds	r3, r7, r1
    1f70:	781b      	ldrb	r3, [r3, #0]
    1f72:	3308      	adds	r3, #8
    1f74:	001a      	movs	r2, r3
    1f76:	183b      	adds	r3, r7, r0
    1f78:	6819      	ldr	r1, [r3, #0]
    1f7a:	4b04      	ldr	r3, [pc, #16]	; (1f8c <execute_next+0x1bf4>)
    1f7c:	0092      	lsls	r2, r2, #2
    1f7e:	50d1      	str	r1, [r2, r3]
    1f80:	2300      	movs	r3, #0
    1f82:	f000 ff69 	bl	2e58 <execute_next+0x2ac0>
    1f86:	46c0      	nop			; (mov r8, r8)
    1f88:	000002a6 	.word	0x000002a6
    1f8c:	00000000 	.word	0x00000000
    1f90:	00000207 	.word	0x00000207
    1f94:	00000206 	.word	0x00000206
    1f98:	49cb      	ldr	r1, [pc, #812]	; (22c8 <execute_next+0x1f30>)
    1f9a:	187b      	adds	r3, r7, r1
    1f9c:	881b      	ldrh	r3, [r3, #0]
    1f9e:	099b      	lsrs	r3, r3, #6
    1fa0:	b29b      	uxth	r3, r3
    1fa2:	059b      	lsls	r3, r3, #22
    1fa4:	0d9a      	lsrs	r2, r3, #22
    1fa6:	2316      	movs	r3, #22
    1fa8:	33ff      	adds	r3, #255	; 0xff
    1faa:	429a      	cmp	r2, r3
    1fac:	d140      	bne.n	2030 <execute_next+0x1c98>
    1fae:	0008      	movs	r0, r1
    1fb0:	187b      	adds	r3, r7, r1
    1fb2:	881b      	ldrh	r3, [r3, #0]
    1fb4:	b2da      	uxtb	r2, r3
    1fb6:	4cc5      	ldr	r4, [pc, #788]	; (22cc <execute_next+0x1f34>)
    1fb8:	193b      	adds	r3, r7, r4
    1fba:	2107      	movs	r1, #7
    1fbc:	400a      	ands	r2, r1
    1fbe:	701a      	strb	r2, [r3, #0]
    1fc0:	183b      	adds	r3, r7, r0
    1fc2:	881b      	ldrh	r3, [r3, #0]
    1fc4:	08db      	lsrs	r3, r3, #3
    1fc6:	b29b      	uxth	r3, r3
    1fc8:	b2da      	uxtb	r2, r3
    1fca:	48c1      	ldr	r0, [pc, #772]	; (22d0 <execute_next+0x1f38>)
    1fcc:	183b      	adds	r3, r7, r0
    1fce:	2107      	movs	r1, #7
    1fd0:	400a      	ands	r2, r1
    1fd2:	701a      	strb	r2, [r3, #0]
    1fd4:	193b      	adds	r3, r7, r4
    1fd6:	781a      	ldrb	r2, [r3, #0]
    1fd8:	4bbe      	ldr	r3, [pc, #760]	; (22d4 <execute_next+0x1f3c>)
    1fda:	0092      	lsls	r2, r2, #2
    1fdc:	58d3      	ldr	r3, [r2, r3]
    1fde:	2484      	movs	r4, #132	; 0x84
    1fe0:	00a4      	lsls	r4, r4, #2
    1fe2:	193a      	adds	r2, r7, r4
    1fe4:	6013      	str	r3, [r2, #0]
    1fe6:	183b      	adds	r3, r7, r0
    1fe8:	781b      	ldrb	r3, [r3, #0]
    1fea:	3308      	adds	r3, #8
    1fec:	001a      	movs	r2, r3
    1fee:	4bb9      	ldr	r3, [pc, #740]	; (22d4 <execute_next+0x1f3c>)
    1ff0:	0092      	lsls	r2, r2, #2
    1ff2:	58d3      	ldr	r3, [r2, r3]
    1ff4:	2583      	movs	r5, #131	; 0x83
    1ff6:	00ad      	lsls	r5, r5, #2
    1ff8:	197a      	adds	r2, r7, r5
    1ffa:	6013      	str	r3, [r2, #0]
    1ffc:	193b      	adds	r3, r7, r4
    1ffe:	681a      	ldr	r2, [r3, #0]
    2000:	197b      	adds	r3, r7, r5
    2002:	681b      	ldr	r3, [r3, #0]
    2004:	1ad3      	subs	r3, r2, r3
    2006:	2682      	movs	r6, #130	; 0x82
    2008:	00b6      	lsls	r6, r6, #2
    200a:	19ba      	adds	r2, r7, r6
    200c:	6013      	str	r3, [r2, #0]
    200e:	19bb      	adds	r3, r7, r6
    2010:	681b      	ldr	r3, [r3, #0]
    2012:	0018      	movs	r0, r3
    2014:	f7ff fffe 	bl	ec <update_nz_flags>
    2018:	193b      	adds	r3, r7, r4
    201a:	681b      	ldr	r3, [r3, #0]
    201c:	197a      	adds	r2, r7, r5
    201e:	6811      	ldr	r1, [r2, #0]
    2020:	19ba      	adds	r2, r7, r6
    2022:	6812      	ldr	r2, [r2, #0]
    2024:	0018      	movs	r0, r3
    2026:	f7ff fffe 	bl	1e0 <update_vc_flags_in_subtraction>
    202a:	2300      	movs	r3, #0
    202c:	f000 ff14 	bl	2e58 <execute_next+0x2ac0>
    2030:	49a5      	ldr	r1, [pc, #660]	; (22c8 <execute_next+0x1f30>)
    2032:	187b      	adds	r3, r7, r1
    2034:	881b      	ldrh	r3, [r3, #0]
    2036:	099b      	lsrs	r3, r3, #6
    2038:	b29b      	uxth	r3, r3
    203a:	059b      	lsls	r3, r3, #22
    203c:	0d9a      	lsrs	r2, r3, #22
    203e:	238b      	movs	r3, #139	; 0x8b
    2040:	005b      	lsls	r3, r3, #1
    2042:	429a      	cmp	r2, r3
    2044:	d140      	bne.n	20c8 <execute_next+0x1d30>
    2046:	0008      	movs	r0, r1
    2048:	187b      	adds	r3, r7, r1
    204a:	881b      	ldrh	r3, [r3, #0]
    204c:	b2da      	uxtb	r2, r3
    204e:	4ca2      	ldr	r4, [pc, #648]	; (22d8 <execute_next+0x1f40>)
    2050:	193b      	adds	r3, r7, r4
    2052:	2107      	movs	r1, #7
    2054:	400a      	ands	r2, r1
    2056:	701a      	strb	r2, [r3, #0]
    2058:	183b      	adds	r3, r7, r0
    205a:	881b      	ldrh	r3, [r3, #0]
    205c:	08db      	lsrs	r3, r3, #3
    205e:	b29b      	uxth	r3, r3
    2060:	b2da      	uxtb	r2, r3
    2062:	489e      	ldr	r0, [pc, #632]	; (22dc <execute_next+0x1f44>)
    2064:	183b      	adds	r3, r7, r0
    2066:	2107      	movs	r1, #7
    2068:	400a      	ands	r2, r1
    206a:	701a      	strb	r2, [r3, #0]
    206c:	193b      	adds	r3, r7, r4
    206e:	781b      	ldrb	r3, [r3, #0]
    2070:	3308      	adds	r3, #8
    2072:	001a      	movs	r2, r3
    2074:	4b97      	ldr	r3, [pc, #604]	; (22d4 <execute_next+0x1f3c>)
    2076:	0092      	lsls	r2, r2, #2
    2078:	58d3      	ldr	r3, [r2, r3]
    207a:	2488      	movs	r4, #136	; 0x88
    207c:	00a4      	lsls	r4, r4, #2
    207e:	193a      	adds	r2, r7, r4
    2080:	6013      	str	r3, [r2, #0]
    2082:	183b      	adds	r3, r7, r0
    2084:	781a      	ldrb	r2, [r3, #0]
    2086:	4b93      	ldr	r3, [pc, #588]	; (22d4 <execute_next+0x1f3c>)
    2088:	0092      	lsls	r2, r2, #2
    208a:	58d3      	ldr	r3, [r2, r3]
    208c:	2587      	movs	r5, #135	; 0x87
    208e:	00ad      	lsls	r5, r5, #2
    2090:	197a      	adds	r2, r7, r5
    2092:	6013      	str	r3, [r2, #0]
    2094:	193b      	adds	r3, r7, r4
    2096:	681a      	ldr	r2, [r3, #0]
    2098:	197b      	adds	r3, r7, r5
    209a:	681b      	ldr	r3, [r3, #0]
    209c:	1ad3      	subs	r3, r2, r3
    209e:	2686      	movs	r6, #134	; 0x86
    20a0:	00b6      	lsls	r6, r6, #2
    20a2:	19ba      	adds	r2, r7, r6
    20a4:	6013      	str	r3, [r2, #0]
    20a6:	19bb      	adds	r3, r7, r6
    20a8:	681b      	ldr	r3, [r3, #0]
    20aa:	0018      	movs	r0, r3
    20ac:	f7ff fffe 	bl	ec <update_nz_flags>
    20b0:	193b      	adds	r3, r7, r4
    20b2:	681b      	ldr	r3, [r3, #0]
    20b4:	197a      	adds	r2, r7, r5
    20b6:	6811      	ldr	r1, [r2, #0]
    20b8:	19ba      	adds	r2, r7, r6
    20ba:	6812      	ldr	r2, [r2, #0]
    20bc:	0018      	movs	r0, r3
    20be:	f7ff fffe 	bl	1e0 <update_vc_flags_in_subtraction>
    20c2:	2300      	movs	r3, #0
    20c4:	f000 fec8 	bl	2e58 <execute_next+0x2ac0>
    20c8:	497f      	ldr	r1, [pc, #508]	; (22c8 <execute_next+0x1f30>)
    20ca:	187b      	adds	r3, r7, r1
    20cc:	881b      	ldrh	r3, [r3, #0]
    20ce:	099b      	lsrs	r3, r3, #6
    20d0:	b29b      	uxth	r3, r3
    20d2:	059b      	lsls	r3, r3, #22
    20d4:	0d9a      	lsrs	r2, r3, #22
    20d6:	2318      	movs	r3, #24
    20d8:	33ff      	adds	r3, #255	; 0xff
    20da:	429a      	cmp	r2, r3
    20dc:	d142      	bne.n	2164 <execute_next+0x1dcc>
    20de:	0008      	movs	r0, r1
    20e0:	187b      	adds	r3, r7, r1
    20e2:	881b      	ldrh	r3, [r3, #0]
    20e4:	b2da      	uxtb	r2, r3
    20e6:	4c7e      	ldr	r4, [pc, #504]	; (22e0 <execute_next+0x1f48>)
    20e8:	193b      	adds	r3, r7, r4
    20ea:	2107      	movs	r1, #7
    20ec:	400a      	ands	r2, r1
    20ee:	701a      	strb	r2, [r3, #0]
    20f0:	183b      	adds	r3, r7, r0
    20f2:	881b      	ldrh	r3, [r3, #0]
    20f4:	08db      	lsrs	r3, r3, #3
    20f6:	b29b      	uxth	r3, r3
    20f8:	b2da      	uxtb	r2, r3
    20fa:	487a      	ldr	r0, [pc, #488]	; (22e4 <execute_next+0x1f4c>)
    20fc:	183b      	adds	r3, r7, r0
    20fe:	2107      	movs	r1, #7
    2100:	400a      	ands	r2, r1
    2102:	701a      	strb	r2, [r3, #0]
    2104:	193b      	adds	r3, r7, r4
    2106:	781b      	ldrb	r3, [r3, #0]
    2108:	3308      	adds	r3, #8
    210a:	001a      	movs	r2, r3
    210c:	4b71      	ldr	r3, [pc, #452]	; (22d4 <execute_next+0x1f3c>)
    210e:	0092      	lsls	r2, r2, #2
    2110:	58d3      	ldr	r3, [r2, r3]
    2112:	248c      	movs	r4, #140	; 0x8c
    2114:	00a4      	lsls	r4, r4, #2
    2116:	193a      	adds	r2, r7, r4
    2118:	6013      	str	r3, [r2, #0]
    211a:	183b      	adds	r3, r7, r0
    211c:	781b      	ldrb	r3, [r3, #0]
    211e:	3308      	adds	r3, #8
    2120:	001a      	movs	r2, r3
    2122:	4b6c      	ldr	r3, [pc, #432]	; (22d4 <execute_next+0x1f3c>)
    2124:	0092      	lsls	r2, r2, #2
    2126:	58d3      	ldr	r3, [r2, r3]
    2128:	258b      	movs	r5, #139	; 0x8b
    212a:	00ad      	lsls	r5, r5, #2
    212c:	197a      	adds	r2, r7, r5
    212e:	6013      	str	r3, [r2, #0]
    2130:	193b      	adds	r3, r7, r4
    2132:	681a      	ldr	r2, [r3, #0]
    2134:	197b      	adds	r3, r7, r5
    2136:	681b      	ldr	r3, [r3, #0]
    2138:	1ad3      	subs	r3, r2, r3
    213a:	268a      	movs	r6, #138	; 0x8a
    213c:	00b6      	lsls	r6, r6, #2
    213e:	19ba      	adds	r2, r7, r6
    2140:	6013      	str	r3, [r2, #0]
    2142:	19bb      	adds	r3, r7, r6
    2144:	681b      	ldr	r3, [r3, #0]
    2146:	0018      	movs	r0, r3
    2148:	f7ff fffe 	bl	ec <update_nz_flags>
    214c:	193b      	adds	r3, r7, r4
    214e:	681b      	ldr	r3, [r3, #0]
    2150:	197a      	adds	r2, r7, r5
    2152:	6811      	ldr	r1, [r2, #0]
    2154:	19ba      	adds	r2, r7, r6
    2156:	6812      	ldr	r2, [r2, #0]
    2158:	0018      	movs	r0, r3
    215a:	f7ff fffe 	bl	1e0 <update_vc_flags_in_subtraction>
    215e:	2300      	movs	r3, #0
    2160:	f000 fe7a 	bl	2e58 <execute_next+0x2ac0>
    2164:	4a58      	ldr	r2, [pc, #352]	; (22c8 <execute_next+0x1f30>)
    2166:	18bb      	adds	r3, r7, r2
    2168:	881b      	ldrh	r3, [r3, #0]
    216a:	09db      	lsrs	r3, r3, #7
    216c:	b29b      	uxth	r3, r3
    216e:	05db      	lsls	r3, r3, #23
    2170:	0ddb      	lsrs	r3, r3, #23
    2172:	2b8e      	cmp	r3, #142	; 0x8e
    2174:	d113      	bne.n	219e <execute_next+0x1e06>
    2176:	18bb      	adds	r3, r7, r2
    2178:	881b      	ldrh	r3, [r3, #0]
    217a:	08db      	lsrs	r3, r3, #3
    217c:	b29b      	uxth	r3, r3
    217e:	b2da      	uxtb	r2, r3
    2180:	4859      	ldr	r0, [pc, #356]	; (22e8 <execute_next+0x1f50>)
    2182:	183b      	adds	r3, r7, r0
    2184:	210f      	movs	r1, #15
    2186:	400a      	ands	r2, r1
    2188:	701a      	strb	r2, [r3, #0]
    218a:	183b      	adds	r3, r7, r0
    218c:	781a      	ldrb	r2, [r3, #0]
    218e:	4b51      	ldr	r3, [pc, #324]	; (22d4 <execute_next+0x1f3c>)
    2190:	0092      	lsls	r2, r2, #2
    2192:	58d2      	ldr	r2, [r2, r3]
    2194:	4b4f      	ldr	r3, [pc, #316]	; (22d4 <execute_next+0x1f3c>)
    2196:	63da      	str	r2, [r3, #60]	; 0x3c
    2198:	2300      	movs	r3, #0
    219a:	f000 fe5d 	bl	2e58 <execute_next+0x2ac0>
    219e:	4a4a      	ldr	r2, [pc, #296]	; (22c8 <execute_next+0x1f30>)
    21a0:	18bb      	adds	r3, r7, r2
    21a2:	881b      	ldrh	r3, [r3, #0]
    21a4:	09db      	lsrs	r3, r3, #7
    21a6:	b29b      	uxth	r3, r3
    21a8:	05db      	lsls	r3, r3, #23
    21aa:	0ddb      	lsrs	r3, r3, #23
    21ac:	2b8f      	cmp	r3, #143	; 0x8f
    21ae:	d11d      	bne.n	21ec <execute_next+0x1e54>
    21b0:	18bb      	adds	r3, r7, r2
    21b2:	881b      	ldrh	r3, [r3, #0]
    21b4:	08db      	lsrs	r3, r3, #3
    21b6:	b29b      	uxth	r3, r3
    21b8:	b2da      	uxtb	r2, r3
    21ba:	484c      	ldr	r0, [pc, #304]	; (22ec <execute_next+0x1f54>)
    21bc:	183b      	adds	r3, r7, r0
    21be:	210f      	movs	r1, #15
    21c0:	400a      	ands	r2, r1
    21c2:	701a      	strb	r2, [r3, #0]
    21c4:	4b43      	ldr	r3, [pc, #268]	; (22d4 <execute_next+0x1f3c>)
    21c6:	6bdb      	ldr	r3, [r3, #60]	; 0x3c
    21c8:	218e      	movs	r1, #142	; 0x8e
    21ca:	0089      	lsls	r1, r1, #2
    21cc:	187a      	adds	r2, r7, r1
    21ce:	6013      	str	r3, [r2, #0]
    21d0:	183b      	adds	r3, r7, r0
    21d2:	781a      	ldrb	r2, [r3, #0]
    21d4:	4b3f      	ldr	r3, [pc, #252]	; (22d4 <execute_next+0x1f3c>)
    21d6:	0092      	lsls	r2, r2, #2
    21d8:	58d2      	ldr	r2, [r2, r3]
    21da:	4b3e      	ldr	r3, [pc, #248]	; (22d4 <execute_next+0x1f3c>)
    21dc:	63da      	str	r2, [r3, #60]	; 0x3c
    21de:	187b      	adds	r3, r7, r1
    21e0:	681a      	ldr	r2, [r3, #0]
    21e2:	4b3c      	ldr	r3, [pc, #240]	; (22d4 <execute_next+0x1f3c>)
    21e4:	639a      	str	r2, [r3, #56]	; 0x38
    21e6:	2300      	movs	r3, #0
    21e8:	f000 fe36 	bl	2e58 <execute_next+0x2ac0>
    21ec:	4836      	ldr	r0, [pc, #216]	; (22c8 <execute_next+0x1f30>)
    21ee:	183b      	adds	r3, r7, r0
    21f0:	881b      	ldrh	r3, [r3, #0]
    21f2:	0adb      	lsrs	r3, r3, #11
    21f4:	b29b      	uxth	r3, r3
    21f6:	001a      	movs	r2, r3
    21f8:	231f      	movs	r3, #31
    21fa:	4013      	ands	r3, r2
    21fc:	2b09      	cmp	r3, #9
    21fe:	d11f      	bne.n	2240 <execute_next+0x1ea8>
    2200:	183b      	adds	r3, r7, r0
    2202:	881b      	ldrh	r3, [r3, #0]
    2204:	0a1b      	lsrs	r3, r3, #8
    2206:	b29b      	uxth	r3, r3
    2208:	b2da      	uxtb	r2, r3
    220a:	4c39      	ldr	r4, [pc, #228]	; (22f0 <execute_next+0x1f58>)
    220c:	193b      	adds	r3, r7, r4
    220e:	2107      	movs	r1, #7
    2210:	400a      	ands	r2, r1
    2212:	701a      	strb	r2, [r3, #0]
    2214:	4937      	ldr	r1, [pc, #220]	; (22f4 <execute_next+0x1f5c>)
    2216:	187b      	adds	r3, r7, r1
    2218:	183a      	adds	r2, r7, r0
    221a:	8812      	ldrh	r2, [r2, #0]
    221c:	701a      	strb	r2, [r3, #0]
    221e:	193b      	adds	r3, r7, r4
    2220:	781b      	ldrb	r3, [r3, #0]
    2222:	009a      	lsls	r2, r3, #2
    2224:	4b2b      	ldr	r3, [pc, #172]	; (22d4 <execute_next+0x1f3c>)
    2226:	18d0      	adds	r0, r2, r3
    2228:	4b2a      	ldr	r3, [pc, #168]	; (22d4 <execute_next+0x1f3c>)
    222a:	6bda      	ldr	r2, [r3, #60]	; 0x3c
    222c:	187b      	adds	r3, r7, r1
    222e:	781b      	ldrb	r3, [r3, #0]
    2230:	009b      	lsls	r3, r3, #2
    2232:	18d3      	adds	r3, r2, r3
    2234:	0019      	movs	r1, r3
    2236:	f7ff fffe 	bl	30c <load_from_memory>
    223a:	2300      	movs	r3, #0
    223c:	f000 fe0c 	bl	2e58 <execute_next+0x2ac0>
    2240:	4821      	ldr	r0, [pc, #132]	; (22c8 <execute_next+0x1f30>)
    2242:	183b      	adds	r3, r7, r0
    2244:	881b      	ldrh	r3, [r3, #0]
    2246:	0a5b      	lsrs	r3, r3, #9
    2248:	b29b      	uxth	r3, r3
    224a:	001a      	movs	r2, r3
    224c:	237f      	movs	r3, #127	; 0x7f
    224e:	4013      	ands	r3, r2
    2250:	2b28      	cmp	r3, #40	; 0x28
    2252:	d157      	bne.n	2304 <execute_next+0x1f6c>
    2254:	183b      	adds	r3, r7, r0
    2256:	881b      	ldrh	r3, [r3, #0]
    2258:	099b      	lsrs	r3, r3, #6
    225a:	b29b      	uxth	r3, r3
    225c:	b2da      	uxtb	r2, r3
    225e:	4c26      	ldr	r4, [pc, #152]	; (22f8 <execute_next+0x1f60>)
    2260:	193b      	adds	r3, r7, r4
    2262:	2107      	movs	r1, #7
    2264:	400a      	ands	r2, r1
    2266:	701a      	strb	r2, [r3, #0]
    2268:	183b      	adds	r3, r7, r0
    226a:	881b      	ldrh	r3, [r3, #0]
    226c:	08db      	lsrs	r3, r3, #3
    226e:	b29b      	uxth	r3, r3
    2270:	b2da      	uxtb	r2, r3
    2272:	4d22      	ldr	r5, [pc, #136]	; (22fc <execute_next+0x1f64>)
    2274:	197b      	adds	r3, r7, r5
    2276:	2107      	movs	r1, #7
    2278:	400a      	ands	r2, r1
    227a:	701a      	strb	r2, [r3, #0]
    227c:	183b      	adds	r3, r7, r0
    227e:	881b      	ldrh	r3, [r3, #0]
    2280:	b2da      	uxtb	r2, r3
    2282:	481f      	ldr	r0, [pc, #124]	; (2300 <execute_next+0x1f68>)
    2284:	183b      	adds	r3, r7, r0
    2286:	2107      	movs	r1, #7
    2288:	400a      	ands	r2, r1
    228a:	701a      	strb	r2, [r3, #0]
    228c:	193b      	adds	r3, r7, r4
    228e:	781a      	ldrb	r2, [r3, #0]
    2290:	4b10      	ldr	r3, [pc, #64]	; (22d4 <execute_next+0x1f3c>)
    2292:	0092      	lsls	r2, r2, #2
    2294:	58d2      	ldr	r2, [r2, r3]
    2296:	197b      	adds	r3, r7, r5
    2298:	7819      	ldrb	r1, [r3, #0]
    229a:	4b0e      	ldr	r3, [pc, #56]	; (22d4 <execute_next+0x1f3c>)
    229c:	0089      	lsls	r1, r1, #2
    229e:	58cb      	ldr	r3, [r1, r3]
    22a0:	18d3      	adds	r3, r2, r3
    22a2:	2190      	movs	r1, #144	; 0x90
    22a4:	0089      	lsls	r1, r1, #2
    22a6:	187a      	adds	r2, r7, r1
    22a8:	6013      	str	r3, [r2, #0]
    22aa:	183b      	adds	r3, r7, r0
    22ac:	781a      	ldrb	r2, [r3, #0]
    22ae:	4b09      	ldr	r3, [pc, #36]	; (22d4 <execute_next+0x1f3c>)
    22b0:	0092      	lsls	r2, r2, #2
    22b2:	58d3      	ldr	r3, [r2, r3]
    22b4:	001a      	movs	r2, r3
    22b6:	187b      	adds	r3, r7, r1
    22b8:	681b      	ldr	r3, [r3, #0]
    22ba:	0019      	movs	r1, r3
    22bc:	0010      	movs	r0, r2
    22be:	f7ff fffe 	bl	28c <store_to_memory>
    22c2:	2300      	movs	r3, #0
    22c4:	f000 fdc8 	bl	2e58 <execute_next+0x2ac0>
    22c8:	000002a6 	.word	0x000002a6
    22cc:	00000217 	.word	0x00000217
    22d0:	00000216 	.word	0x00000216
    22d4:	00000000 	.word	0x00000000
    22d8:	00000227 	.word	0x00000227
    22dc:	00000226 	.word	0x00000226
    22e0:	00000236 	.word	0x00000236
    22e4:	00000235 	.word	0x00000235
    22e8:	00000237 	.word	0x00000237
    22ec:	0000023d 	.word	0x0000023d
    22f0:	0000023f 	.word	0x0000023f
    22f4:	0000023e 	.word	0x0000023e
    22f8:	00000247 	.word	0x00000247
    22fc:	00000246 	.word	0x00000246
    2300:	00000245 	.word	0x00000245
    2304:	48dc      	ldr	r0, [pc, #880]	; (2678 <execute_next+0x22e0>)
    2306:	183b      	adds	r3, r7, r0
    2308:	881b      	ldrh	r3, [r3, #0]
    230a:	0a5b      	lsrs	r3, r3, #9
    230c:	b29b      	uxth	r3, r3
    230e:	001a      	movs	r2, r3
    2310:	237f      	movs	r3, #127	; 0x7f
    2312:	4013      	ands	r3, r2
    2314:	2b2c      	cmp	r3, #44	; 0x2c
    2316:	d138      	bne.n	238a <execute_next+0x1ff2>
    2318:	183b      	adds	r3, r7, r0
    231a:	881b      	ldrh	r3, [r3, #0]
    231c:	099b      	lsrs	r3, r3, #6
    231e:	b29b      	uxth	r3, r3
    2320:	b2da      	uxtb	r2, r3
    2322:	4cd6      	ldr	r4, [pc, #856]	; (267c <execute_next+0x22e4>)
    2324:	193b      	adds	r3, r7, r4
    2326:	2107      	movs	r1, #7
    2328:	400a      	ands	r2, r1
    232a:	701a      	strb	r2, [r3, #0]
    232c:	183b      	adds	r3, r7, r0
    232e:	881b      	ldrh	r3, [r3, #0]
    2330:	08db      	lsrs	r3, r3, #3
    2332:	b29b      	uxth	r3, r3
    2334:	b2da      	uxtb	r2, r3
    2336:	4dd2      	ldr	r5, [pc, #840]	; (2680 <execute_next+0x22e8>)
    2338:	197b      	adds	r3, r7, r5
    233a:	2107      	movs	r1, #7
    233c:	400a      	ands	r2, r1
    233e:	701a      	strb	r2, [r3, #0]
    2340:	183b      	adds	r3, r7, r0
    2342:	881b      	ldrh	r3, [r3, #0]
    2344:	b2da      	uxtb	r2, r3
    2346:	48cf      	ldr	r0, [pc, #828]	; (2684 <execute_next+0x22ec>)
    2348:	183b      	adds	r3, r7, r0
    234a:	2107      	movs	r1, #7
    234c:	400a      	ands	r2, r1
    234e:	701a      	strb	r2, [r3, #0]
    2350:	193b      	adds	r3, r7, r4
    2352:	781a      	ldrb	r2, [r3, #0]
    2354:	4bcc      	ldr	r3, [pc, #816]	; (2688 <execute_next+0x22f0>)
    2356:	0092      	lsls	r2, r2, #2
    2358:	58d2      	ldr	r2, [r2, r3]
    235a:	197b      	adds	r3, r7, r5
    235c:	7819      	ldrb	r1, [r3, #0]
    235e:	4bca      	ldr	r3, [pc, #808]	; (2688 <execute_next+0x22f0>)
    2360:	0089      	lsls	r1, r1, #2
    2362:	58cb      	ldr	r3, [r1, r3]
    2364:	18d3      	adds	r3, r2, r3
    2366:	2192      	movs	r1, #146	; 0x92
    2368:	0089      	lsls	r1, r1, #2
    236a:	187a      	adds	r2, r7, r1
    236c:	6013      	str	r3, [r2, #0]
    236e:	183b      	adds	r3, r7, r0
    2370:	781b      	ldrb	r3, [r3, #0]
    2372:	009a      	lsls	r2, r3, #2
    2374:	4bc4      	ldr	r3, [pc, #784]	; (2688 <execute_next+0x22f0>)
    2376:	18d3      	adds	r3, r2, r3
    2378:	187a      	adds	r2, r7, r1
    237a:	6812      	ldr	r2, [r2, #0]
    237c:	0011      	movs	r1, r2
    237e:	0018      	movs	r0, r3
    2380:	f7ff fffe 	bl	30c <load_from_memory>
    2384:	2300      	movs	r3, #0
    2386:	f000 fd67 	bl	2e58 <execute_next+0x2ac0>
    238a:	48bb      	ldr	r0, [pc, #748]	; (2678 <execute_next+0x22e0>)
    238c:	183b      	adds	r3, r7, r0
    238e:	881b      	ldrh	r3, [r3, #0]
    2390:	0adb      	lsrs	r3, r3, #11
    2392:	b29b      	uxth	r3, r3
    2394:	001a      	movs	r2, r3
    2396:	231f      	movs	r3, #31
    2398:	4013      	ands	r3, r2
    239a:	2b0c      	cmp	r3, #12
    239c:	d137      	bne.n	240e <execute_next+0x2076>
    239e:	183b      	adds	r3, r7, r0
    23a0:	881b      	ldrh	r3, [r3, #0]
    23a2:	099b      	lsrs	r3, r3, #6
    23a4:	b29b      	uxth	r3, r3
    23a6:	b2da      	uxtb	r2, r3
    23a8:	4cb8      	ldr	r4, [pc, #736]	; (268c <execute_next+0x22f4>)
    23aa:	193b      	adds	r3, r7, r4
    23ac:	211f      	movs	r1, #31
    23ae:	400a      	ands	r2, r1
    23b0:	701a      	strb	r2, [r3, #0]
    23b2:	183b      	adds	r3, r7, r0
    23b4:	881b      	ldrh	r3, [r3, #0]
    23b6:	08db      	lsrs	r3, r3, #3
    23b8:	b29b      	uxth	r3, r3
    23ba:	b2da      	uxtb	r2, r3
    23bc:	4db4      	ldr	r5, [pc, #720]	; (2690 <execute_next+0x22f8>)
    23be:	197b      	adds	r3, r7, r5
    23c0:	2107      	movs	r1, #7
    23c2:	400a      	ands	r2, r1
    23c4:	701a      	strb	r2, [r3, #0]
    23c6:	183b      	adds	r3, r7, r0
    23c8:	881b      	ldrh	r3, [r3, #0]
    23ca:	b2da      	uxtb	r2, r3
    23cc:	48b1      	ldr	r0, [pc, #708]	; (2694 <execute_next+0x22fc>)
    23ce:	183b      	adds	r3, r7, r0
    23d0:	2107      	movs	r1, #7
    23d2:	400a      	ands	r2, r1
    23d4:	701a      	strb	r2, [r3, #0]
    23d6:	197b      	adds	r3, r7, r5
    23d8:	781a      	ldrb	r2, [r3, #0]
    23da:	4bab      	ldr	r3, [pc, #684]	; (2688 <execute_next+0x22f0>)
    23dc:	0092      	lsls	r2, r2, #2
    23de:	58d2      	ldr	r2, [r2, r3]
    23e0:	193b      	adds	r3, r7, r4
    23e2:	781b      	ldrb	r3, [r3, #0]
    23e4:	009b      	lsls	r3, r3, #2
    23e6:	18d3      	adds	r3, r2, r3
    23e8:	2194      	movs	r1, #148	; 0x94
    23ea:	0089      	lsls	r1, r1, #2
    23ec:	187a      	adds	r2, r7, r1
    23ee:	6013      	str	r3, [r2, #0]
    23f0:	183b      	adds	r3, r7, r0
    23f2:	781a      	ldrb	r2, [r3, #0]
    23f4:	4ba4      	ldr	r3, [pc, #656]	; (2688 <execute_next+0x22f0>)
    23f6:	0092      	lsls	r2, r2, #2
    23f8:	58d3      	ldr	r3, [r2, r3]
    23fa:	001a      	movs	r2, r3
    23fc:	187b      	adds	r3, r7, r1
    23fe:	681b      	ldr	r3, [r3, #0]
    2400:	0019      	movs	r1, r3
    2402:	0010      	movs	r0, r2
    2404:	f7ff fffe 	bl	28c <store_to_memory>
    2408:	2300      	movs	r3, #0
    240a:	f000 fd25 	bl	2e58 <execute_next+0x2ac0>
    240e:	489a      	ldr	r0, [pc, #616]	; (2678 <execute_next+0x22e0>)
    2410:	183b      	adds	r3, r7, r0
    2412:	881b      	ldrh	r3, [r3, #0]
    2414:	0adb      	lsrs	r3, r3, #11
    2416:	b29b      	uxth	r3, r3
    2418:	001a      	movs	r2, r3
    241a:	231f      	movs	r3, #31
    241c:	4013      	ands	r3, r2
    241e:	2b0d      	cmp	r3, #13
    2420:	d136      	bne.n	2490 <execute_next+0x20f8>
    2422:	183b      	adds	r3, r7, r0
    2424:	881b      	ldrh	r3, [r3, #0]
    2426:	099b      	lsrs	r3, r3, #6
    2428:	b29b      	uxth	r3, r3
    242a:	b2da      	uxtb	r2, r3
    242c:	4c9a      	ldr	r4, [pc, #616]	; (2698 <execute_next+0x2300>)
    242e:	193b      	adds	r3, r7, r4
    2430:	211f      	movs	r1, #31
    2432:	400a      	ands	r2, r1
    2434:	701a      	strb	r2, [r3, #0]
    2436:	183b      	adds	r3, r7, r0
    2438:	881b      	ldrh	r3, [r3, #0]
    243a:	08db      	lsrs	r3, r3, #3
    243c:	b29b      	uxth	r3, r3
    243e:	b2da      	uxtb	r2, r3
    2440:	4d96      	ldr	r5, [pc, #600]	; (269c <execute_next+0x2304>)
    2442:	197b      	adds	r3, r7, r5
    2444:	2107      	movs	r1, #7
    2446:	400a      	ands	r2, r1
    2448:	701a      	strb	r2, [r3, #0]
    244a:	183b      	adds	r3, r7, r0
    244c:	881b      	ldrh	r3, [r3, #0]
    244e:	b2da      	uxtb	r2, r3
    2450:	4893      	ldr	r0, [pc, #588]	; (26a0 <execute_next+0x2308>)
    2452:	183b      	adds	r3, r7, r0
    2454:	2107      	movs	r1, #7
    2456:	400a      	ands	r2, r1
    2458:	701a      	strb	r2, [r3, #0]
    245a:	197b      	adds	r3, r7, r5
    245c:	781a      	ldrb	r2, [r3, #0]
    245e:	4b8a      	ldr	r3, [pc, #552]	; (2688 <execute_next+0x22f0>)
    2460:	0092      	lsls	r2, r2, #2
    2462:	58d2      	ldr	r2, [r2, r3]
    2464:	193b      	adds	r3, r7, r4
    2466:	781b      	ldrb	r3, [r3, #0]
    2468:	009b      	lsls	r3, r3, #2
    246a:	18d3      	adds	r3, r2, r3
    246c:	2196      	movs	r1, #150	; 0x96
    246e:	0089      	lsls	r1, r1, #2
    2470:	187a      	adds	r2, r7, r1
    2472:	6013      	str	r3, [r2, #0]
    2474:	183b      	adds	r3, r7, r0
    2476:	781b      	ldrb	r3, [r3, #0]
    2478:	009a      	lsls	r2, r3, #2
    247a:	4b83      	ldr	r3, [pc, #524]	; (2688 <execute_next+0x22f0>)
    247c:	18d3      	adds	r3, r2, r3
    247e:	187a      	adds	r2, r7, r1
    2480:	6812      	ldr	r2, [r2, #0]
    2482:	0011      	movs	r1, r2
    2484:	0018      	movs	r0, r3
    2486:	f7ff fffe 	bl	30c <load_from_memory>
    248a:	2300      	movs	r3, #0
    248c:	f000 fce4 	bl	2e58 <execute_next+0x2ac0>
    2490:	4879      	ldr	r0, [pc, #484]	; (2678 <execute_next+0x22e0>)
    2492:	183b      	adds	r3, r7, r0
    2494:	881b      	ldrh	r3, [r3, #0]
    2496:	0adb      	lsrs	r3, r3, #11
    2498:	b29b      	uxth	r3, r3
    249a:	001a      	movs	r2, r3
    249c:	231f      	movs	r3, #31
    249e:	4013      	ands	r3, r2
    24a0:	2b12      	cmp	r3, #18
    24a2:	d127      	bne.n	24f4 <execute_next+0x215c>
    24a4:	183b      	adds	r3, r7, r0
    24a6:	881b      	ldrh	r3, [r3, #0]
    24a8:	0a1b      	lsrs	r3, r3, #8
    24aa:	b29b      	uxth	r3, r3
    24ac:	b2da      	uxtb	r2, r3
    24ae:	4c7d      	ldr	r4, [pc, #500]	; (26a4 <execute_next+0x230c>)
    24b0:	193b      	adds	r3, r7, r4
    24b2:	2107      	movs	r1, #7
    24b4:	400a      	ands	r2, r1
    24b6:	701a      	strb	r2, [r3, #0]
    24b8:	497b      	ldr	r1, [pc, #492]	; (26a8 <execute_next+0x2310>)
    24ba:	187b      	adds	r3, r7, r1
    24bc:	183a      	adds	r2, r7, r0
    24be:	8812      	ldrh	r2, [r2, #0]
    24c0:	701a      	strb	r2, [r3, #0]
    24c2:	4b71      	ldr	r3, [pc, #452]	; (2688 <execute_next+0x22f0>)
    24c4:	6b5a      	ldr	r2, [r3, #52]	; 0x34
    24c6:	187b      	adds	r3, r7, r1
    24c8:	781b      	ldrb	r3, [r3, #0]
    24ca:	009b      	lsls	r3, r3, #2
    24cc:	18d3      	adds	r3, r2, r3
    24ce:	2198      	movs	r1, #152	; 0x98
    24d0:	0089      	lsls	r1, r1, #2
    24d2:	187a      	adds	r2, r7, r1
    24d4:	6013      	str	r3, [r2, #0]
    24d6:	193b      	adds	r3, r7, r4
    24d8:	781a      	ldrb	r2, [r3, #0]
    24da:	4b6b      	ldr	r3, [pc, #428]	; (2688 <execute_next+0x22f0>)
    24dc:	0092      	lsls	r2, r2, #2
    24de:	58d3      	ldr	r3, [r2, r3]
    24e0:	001a      	movs	r2, r3
    24e2:	187b      	adds	r3, r7, r1
    24e4:	681b      	ldr	r3, [r3, #0]
    24e6:	0019      	movs	r1, r3
    24e8:	0010      	movs	r0, r2
    24ea:	f7ff fffe 	bl	28c <store_to_memory>
    24ee:	2300      	movs	r3, #0
    24f0:	f000 fcb2 	bl	2e58 <execute_next+0x2ac0>
    24f4:	4860      	ldr	r0, [pc, #384]	; (2678 <execute_next+0x22e0>)
    24f6:	183b      	adds	r3, r7, r0
    24f8:	881b      	ldrh	r3, [r3, #0]
    24fa:	0adb      	lsrs	r3, r3, #11
    24fc:	b29b      	uxth	r3, r3
    24fe:	001a      	movs	r2, r3
    2500:	231f      	movs	r3, #31
    2502:	4013      	ands	r3, r2
    2504:	2b13      	cmp	r3, #19
    2506:	d126      	bne.n	2556 <execute_next+0x21be>
    2508:	183b      	adds	r3, r7, r0
    250a:	881b      	ldrh	r3, [r3, #0]
    250c:	0a1b      	lsrs	r3, r3, #8
    250e:	b29b      	uxth	r3, r3
    2510:	b2da      	uxtb	r2, r3
    2512:	4c66      	ldr	r4, [pc, #408]	; (26ac <execute_next+0x2314>)
    2514:	193b      	adds	r3, r7, r4
    2516:	2107      	movs	r1, #7
    2518:	400a      	ands	r2, r1
    251a:	701a      	strb	r2, [r3, #0]
    251c:	4964      	ldr	r1, [pc, #400]	; (26b0 <execute_next+0x2318>)
    251e:	187b      	adds	r3, r7, r1
    2520:	183a      	adds	r2, r7, r0
    2522:	8812      	ldrh	r2, [r2, #0]
    2524:	701a      	strb	r2, [r3, #0]
    2526:	4b58      	ldr	r3, [pc, #352]	; (2688 <execute_next+0x22f0>)
    2528:	6b5a      	ldr	r2, [r3, #52]	; 0x34
    252a:	187b      	adds	r3, r7, r1
    252c:	781b      	ldrb	r3, [r3, #0]
    252e:	009b      	lsls	r3, r3, #2
    2530:	18d3      	adds	r3, r2, r3
    2532:	219a      	movs	r1, #154	; 0x9a
    2534:	0089      	lsls	r1, r1, #2
    2536:	187a      	adds	r2, r7, r1
    2538:	6013      	str	r3, [r2, #0]
    253a:	193b      	adds	r3, r7, r4
    253c:	781b      	ldrb	r3, [r3, #0]
    253e:	009a      	lsls	r2, r3, #2
    2540:	4b51      	ldr	r3, [pc, #324]	; (2688 <execute_next+0x22f0>)
    2542:	18d3      	adds	r3, r2, r3
    2544:	187a      	adds	r2, r7, r1
    2546:	6812      	ldr	r2, [r2, #0]
    2548:	0011      	movs	r1, r2
    254a:	0018      	movs	r0, r3
    254c:	f7ff fffe 	bl	30c <load_from_memory>
    2550:	2300      	movs	r3, #0
    2552:	f000 fc81 	bl	2e58 <execute_next+0x2ac0>
    2556:	4c48      	ldr	r4, [pc, #288]	; (2678 <execute_next+0x22e0>)
    2558:	193b      	adds	r3, r7, r4
    255a:	881b      	ldrh	r3, [r3, #0]
    255c:	0adb      	lsrs	r3, r3, #11
    255e:	b29b      	uxth	r3, r3
    2560:	001a      	movs	r2, r3
    2562:	231f      	movs	r3, #31
    2564:	4013      	ands	r3, r2
    2566:	2b14      	cmp	r3, #20
    2568:	d13d      	bne.n	25e6 <execute_next+0x224e>
    256a:	193b      	adds	r3, r7, r4
    256c:	881b      	ldrh	r3, [r3, #0]
    256e:	0a1b      	lsrs	r3, r3, #8
    2570:	b29b      	uxth	r3, r3
    2572:	b2da      	uxtb	r2, r3
    2574:	484f      	ldr	r0, [pc, #316]	; (26b4 <execute_next+0x231c>)
    2576:	183b      	adds	r3, r7, r0
    2578:	2107      	movs	r1, #7
    257a:	400a      	ands	r2, r1
    257c:	701a      	strb	r2, [r3, #0]
    257e:	494e      	ldr	r1, [pc, #312]	; (26b8 <execute_next+0x2320>)
    2580:	187b      	adds	r3, r7, r1
    2582:	193a      	adds	r2, r7, r4
    2584:	8812      	ldrh	r2, [r2, #0]
    2586:	701a      	strb	r2, [r3, #0]
    2588:	187b      	adds	r3, r7, r1
    258a:	781b      	ldrb	r3, [r3, #0]
    258c:	009b      	lsls	r3, r3, #2
    258e:	219c      	movs	r1, #156	; 0x9c
    2590:	0089      	lsls	r1, r1, #2
    2592:	187a      	adds	r2, r7, r1
    2594:	6013      	str	r3, [r2, #0]
    2596:	4b3c      	ldr	r3, [pc, #240]	; (2688 <execute_next+0x22f0>)
    2598:	6bdb      	ldr	r3, [r3, #60]	; 0x3c
    259a:	001a      	movs	r2, r3
    259c:	187b      	adds	r3, r7, r1
    259e:	681b      	ldr	r3, [r3, #0]
    25a0:	18d1      	adds	r1, r2, r3
    25a2:	183b      	adds	r3, r7, r0
    25a4:	781a      	ldrb	r2, [r3, #0]
    25a6:	4b38      	ldr	r3, [pc, #224]	; (2688 <execute_next+0x22f0>)
    25a8:	0092      	lsls	r2, r2, #2
    25aa:	50d1      	str	r1, [r2, r3]
    25ac:	183b      	adds	r3, r7, r0
    25ae:	781a      	ldrb	r2, [r3, #0]
    25b0:	4b35      	ldr	r3, [pc, #212]	; (2688 <execute_next+0x22f0>)
    25b2:	0092      	lsls	r2, r2, #2
    25b4:	58d3      	ldr	r3, [r2, r3]
    25b6:	183a      	adds	r2, r7, r0
    25b8:	7812      	ldrb	r2, [r2, #0]
    25ba:	2101      	movs	r1, #1
    25bc:	438b      	bics	r3, r1
    25be:	0019      	movs	r1, r3
    25c0:	4b31      	ldr	r3, [pc, #196]	; (2688 <execute_next+0x22f0>)
    25c2:	0092      	lsls	r2, r2, #2
    25c4:	50d1      	str	r1, [r2, r3]
    25c6:	183b      	adds	r3, r7, r0
    25c8:	781a      	ldrb	r2, [r3, #0]
    25ca:	4b2f      	ldr	r3, [pc, #188]	; (2688 <execute_next+0x22f0>)
    25cc:	0092      	lsls	r2, r2, #2
    25ce:	58d3      	ldr	r3, [r2, r3]
    25d0:	183a      	adds	r2, r7, r0
    25d2:	7812      	ldrb	r2, [r2, #0]
    25d4:	2102      	movs	r1, #2
    25d6:	438b      	bics	r3, r1
    25d8:	0019      	movs	r1, r3
    25da:	4b2b      	ldr	r3, [pc, #172]	; (2688 <execute_next+0x22f0>)
    25dc:	0092      	lsls	r2, r2, #2
    25de:	50d1      	str	r1, [r2, r3]
    25e0:	2300      	movs	r3, #0
    25e2:	f000 fc39 	bl	2e58 <execute_next+0x2ac0>
    25e6:	4c24      	ldr	r4, [pc, #144]	; (2678 <execute_next+0x22e0>)
    25e8:	193b      	adds	r3, r7, r4
    25ea:	881b      	ldrh	r3, [r3, #0]
    25ec:	0adb      	lsrs	r3, r3, #11
    25ee:	b29b      	uxth	r3, r3
    25f0:	001a      	movs	r2, r3
    25f2:	231f      	movs	r3, #31
    25f4:	4013      	ands	r3, r2
    25f6:	2b15      	cmp	r3, #21
    25f8:	d164      	bne.n	26c4 <execute_next+0x232c>
    25fa:	193b      	adds	r3, r7, r4
    25fc:	881b      	ldrh	r3, [r3, #0]
    25fe:	0a1b      	lsrs	r3, r3, #8
    2600:	b29b      	uxth	r3, r3
    2602:	b2da      	uxtb	r2, r3
    2604:	482d      	ldr	r0, [pc, #180]	; (26bc <execute_next+0x2324>)
    2606:	183b      	adds	r3, r7, r0
    2608:	2107      	movs	r1, #7
    260a:	400a      	ands	r2, r1
    260c:	701a      	strb	r2, [r3, #0]
    260e:	492c      	ldr	r1, [pc, #176]	; (26c0 <execute_next+0x2328>)
    2610:	187b      	adds	r3, r7, r1
    2612:	193a      	adds	r2, r7, r4
    2614:	8812      	ldrh	r2, [r2, #0]
    2616:	701a      	strb	r2, [r3, #0]
    2618:	187b      	adds	r3, r7, r1
    261a:	781b      	ldrb	r3, [r3, #0]
    261c:	009b      	lsls	r3, r3, #2
    261e:	219e      	movs	r1, #158	; 0x9e
    2620:	0089      	lsls	r1, r1, #2
    2622:	187a      	adds	r2, r7, r1
    2624:	6013      	str	r3, [r2, #0]
    2626:	4b18      	ldr	r3, [pc, #96]	; (2688 <execute_next+0x22f0>)
    2628:	6b5b      	ldr	r3, [r3, #52]	; 0x34
    262a:	001a      	movs	r2, r3
    262c:	187b      	adds	r3, r7, r1
    262e:	681b      	ldr	r3, [r3, #0]
    2630:	18d1      	adds	r1, r2, r3
    2632:	183b      	adds	r3, r7, r0
    2634:	781a      	ldrb	r2, [r3, #0]
    2636:	4b14      	ldr	r3, [pc, #80]	; (2688 <execute_next+0x22f0>)
    2638:	0092      	lsls	r2, r2, #2
    263a:	50d1      	str	r1, [r2, r3]
    263c:	183b      	adds	r3, r7, r0
    263e:	781a      	ldrb	r2, [r3, #0]
    2640:	4b11      	ldr	r3, [pc, #68]	; (2688 <execute_next+0x22f0>)
    2642:	0092      	lsls	r2, r2, #2
    2644:	58d3      	ldr	r3, [r2, r3]
    2646:	183a      	adds	r2, r7, r0
    2648:	7812      	ldrb	r2, [r2, #0]
    264a:	2101      	movs	r1, #1
    264c:	438b      	bics	r3, r1
    264e:	0019      	movs	r1, r3
    2650:	4b0d      	ldr	r3, [pc, #52]	; (2688 <execute_next+0x22f0>)
    2652:	0092      	lsls	r2, r2, #2
    2654:	50d1      	str	r1, [r2, r3]
    2656:	183b      	adds	r3, r7, r0
    2658:	781a      	ldrb	r2, [r3, #0]
    265a:	4b0b      	ldr	r3, [pc, #44]	; (2688 <execute_next+0x22f0>)
    265c:	0092      	lsls	r2, r2, #2
    265e:	58d3      	ldr	r3, [r2, r3]
    2660:	183a      	adds	r2, r7, r0
    2662:	7812      	ldrb	r2, [r2, #0]
    2664:	2102      	movs	r1, #2
    2666:	438b      	bics	r3, r1
    2668:	0019      	movs	r1, r3
    266a:	4b07      	ldr	r3, [pc, #28]	; (2688 <execute_next+0x22f0>)
    266c:	0092      	lsls	r2, r2, #2
    266e:	50d1      	str	r1, [r2, r3]
    2670:	2300      	movs	r3, #0
    2672:	f000 fbf1 	bl	2e58 <execute_next+0x2ac0>
    2676:	46c0      	nop			; (mov r8, r8)
    2678:	000002a6 	.word	0x000002a6
    267c:	0000024f 	.word	0x0000024f
    2680:	0000024e 	.word	0x0000024e
    2684:	0000024d 	.word	0x0000024d
    2688:	00000000 	.word	0x00000000
    268c:	00000257 	.word	0x00000257
    2690:	00000256 	.word	0x00000256
    2694:	00000255 	.word	0x00000255
    2698:	0000025f 	.word	0x0000025f
    269c:	0000025e 	.word	0x0000025e
    26a0:	0000025d 	.word	0x0000025d
    26a4:	00000267 	.word	0x00000267
    26a8:	00000266 	.word	0x00000266
    26ac:	0000026f 	.word	0x0000026f
    26b0:	0000026e 	.word	0x0000026e
    26b4:	00000277 	.word	0x00000277
    26b8:	00000276 	.word	0x00000276
    26bc:	0000027f 	.word	0x0000027f
    26c0:	0000027e 	.word	0x0000027e
    26c4:	49df      	ldr	r1, [pc, #892]	; (2a44 <execute_next+0x26ac>)
    26c6:	187b      	adds	r3, r7, r1
    26c8:	881b      	ldrh	r3, [r3, #0]
    26ca:	09db      	lsrs	r3, r3, #7
    26cc:	b29b      	uxth	r3, r3
    26ce:	05db      	lsls	r3, r3, #23
    26d0:	0dda      	lsrs	r2, r3, #23
    26d2:	23b0      	movs	r3, #176	; 0xb0
    26d4:	005b      	lsls	r3, r3, #1
    26d6:	429a      	cmp	r2, r3
    26d8:	d11a      	bne.n	2710 <execute_next+0x2378>
    26da:	187b      	adds	r3, r7, r1
    26dc:	881b      	ldrh	r3, [r3, #0]
    26de:	b2da      	uxtb	r2, r3
    26e0:	48d9      	ldr	r0, [pc, #868]	; (2a48 <execute_next+0x26b0>)
    26e2:	183b      	adds	r3, r7, r0
    26e4:	217f      	movs	r1, #127	; 0x7f
    26e6:	400a      	ands	r2, r1
    26e8:	701a      	strb	r2, [r3, #0]
    26ea:	183b      	adds	r3, r7, r0
    26ec:	781b      	ldrb	r3, [r3, #0]
    26ee:	009b      	lsls	r3, r3, #2
    26f0:	21a0      	movs	r1, #160	; 0xa0
    26f2:	0089      	lsls	r1, r1, #2
    26f4:	187a      	adds	r2, r7, r1
    26f6:	6013      	str	r3, [r2, #0]
    26f8:	4bd4      	ldr	r3, [pc, #848]	; (2a4c <execute_next+0x26b4>)
    26fa:	6b5b      	ldr	r3, [r3, #52]	; 0x34
    26fc:	001a      	movs	r2, r3
    26fe:	187b      	adds	r3, r7, r1
    2700:	681b      	ldr	r3, [r3, #0]
    2702:	18d3      	adds	r3, r2, r3
    2704:	001a      	movs	r2, r3
    2706:	4bd1      	ldr	r3, [pc, #836]	; (2a4c <execute_next+0x26b4>)
    2708:	635a      	str	r2, [r3, #52]	; 0x34
    270a:	2300      	movs	r3, #0
    270c:	f000 fba4 	bl	2e58 <execute_next+0x2ac0>
    2710:	49cc      	ldr	r1, [pc, #816]	; (2a44 <execute_next+0x26ac>)
    2712:	187b      	adds	r3, r7, r1
    2714:	881b      	ldrh	r3, [r3, #0]
    2716:	09db      	lsrs	r3, r3, #7
    2718:	b29b      	uxth	r3, r3
    271a:	05db      	lsls	r3, r3, #23
    271c:	0dda      	lsrs	r2, r3, #23
    271e:	2362      	movs	r3, #98	; 0x62
    2720:	33ff      	adds	r3, #255	; 0xff
    2722:	429a      	cmp	r2, r3
    2724:	d11a      	bne.n	275c <execute_next+0x23c4>
    2726:	187b      	adds	r3, r7, r1
    2728:	881b      	ldrh	r3, [r3, #0]
    272a:	b2da      	uxtb	r2, r3
    272c:	48c8      	ldr	r0, [pc, #800]	; (2a50 <execute_next+0x26b8>)
    272e:	183b      	adds	r3, r7, r0
    2730:	217f      	movs	r1, #127	; 0x7f
    2732:	400a      	ands	r2, r1
    2734:	701a      	strb	r2, [r3, #0]
    2736:	183b      	adds	r3, r7, r0
    2738:	781b      	ldrb	r3, [r3, #0]
    273a:	009b      	lsls	r3, r3, #2
    273c:	21a2      	movs	r1, #162	; 0xa2
    273e:	0089      	lsls	r1, r1, #2
    2740:	187a      	adds	r2, r7, r1
    2742:	6013      	str	r3, [r2, #0]
    2744:	4bc1      	ldr	r3, [pc, #772]	; (2a4c <execute_next+0x26b4>)
    2746:	6b5b      	ldr	r3, [r3, #52]	; 0x34
    2748:	001a      	movs	r2, r3
    274a:	187b      	adds	r3, r7, r1
    274c:	681b      	ldr	r3, [r3, #0]
    274e:	1ad3      	subs	r3, r2, r3
    2750:	001a      	movs	r2, r3
    2752:	4bbe      	ldr	r3, [pc, #760]	; (2a4c <execute_next+0x26b4>)
    2754:	635a      	str	r2, [r3, #52]	; 0x34
    2756:	2300      	movs	r3, #0
    2758:	f000 fb7e 	bl	2e58 <execute_next+0x2ac0>
    275c:	48b9      	ldr	r0, [pc, #740]	; (2a44 <execute_next+0x26ac>)
    275e:	183b      	adds	r3, r7, r0
    2760:	881b      	ldrh	r3, [r3, #0]
    2762:	0a5b      	lsrs	r3, r3, #9
    2764:	b29b      	uxth	r3, r3
    2766:	001a      	movs	r2, r3
    2768:	237f      	movs	r3, #127	; 0x7f
    276a:	4013      	ands	r3, r2
    276c:	2b5a      	cmp	r3, #90	; 0x5a
    276e:	d160      	bne.n	2832 <execute_next+0x249a>
    2770:	183b      	adds	r3, r7, r0
    2772:	881b      	ldrh	r3, [r3, #0]
    2774:	0a1b      	lsrs	r3, r3, #8
    2776:	b29b      	uxth	r3, r3
    2778:	b2da      	uxtb	r2, r3
    277a:	4cb6      	ldr	r4, [pc, #728]	; (2a54 <execute_next+0x26bc>)
    277c:	193b      	adds	r3, r7, r4
    277e:	2101      	movs	r1, #1
    2780:	400a      	ands	r2, r1
    2782:	701a      	strb	r2, [r3, #0]
    2784:	4bb4      	ldr	r3, [pc, #720]	; (2a58 <execute_next+0x26c0>)
    2786:	18fb      	adds	r3, r7, r3
    2788:	183a      	adds	r2, r7, r0
    278a:	8812      	ldrh	r2, [r2, #0]
    278c:	701a      	strb	r2, [r3, #0]
    278e:	4baf      	ldr	r3, [pc, #700]	; (2a4c <execute_next+0x26b4>)
    2790:	6b5b      	ldr	r3, [r3, #52]	; 0x34
    2792:	21b1      	movs	r1, #177	; 0xb1
    2794:	0089      	lsls	r1, r1, #2
    2796:	187a      	adds	r2, r7, r1
    2798:	6013      	str	r3, [r2, #0]
    279a:	193b      	adds	r3, r7, r4
    279c:	781b      	ldrb	r3, [r3, #0]
    279e:	2b01      	cmp	r3, #1
    27a0:	d10d      	bne.n	27be <execute_next+0x2426>
    27a2:	187b      	adds	r3, r7, r1
    27a4:	681b      	ldr	r3, [r3, #0]
    27a6:	3b04      	subs	r3, #4
    27a8:	187a      	adds	r2, r7, r1
    27aa:	6013      	str	r3, [r2, #0]
    27ac:	4ba7      	ldr	r3, [pc, #668]	; (2a4c <execute_next+0x26b4>)
    27ae:	6b9b      	ldr	r3, [r3, #56]	; 0x38
    27b0:	001a      	movs	r2, r3
    27b2:	187b      	adds	r3, r7, r1
    27b4:	681b      	ldr	r3, [r3, #0]
    27b6:	0019      	movs	r1, r3
    27b8:	0010      	movs	r0, r2
    27ba:	f7ff fffe 	bl	28c <store_to_memory>
    27be:	2307      	movs	r3, #7
    27c0:	22b0      	movs	r2, #176	; 0xb0
    27c2:	0092      	lsls	r2, r2, #2
    27c4:	18ba      	adds	r2, r7, r2
    27c6:	6013      	str	r3, [r2, #0]
    27c8:	e025      	b.n	2816 <execute_next+0x247e>
    27ca:	4ba3      	ldr	r3, [pc, #652]	; (2a58 <execute_next+0x26c0>)
    27cc:	18fb      	adds	r3, r7, r3
    27ce:	781a      	ldrb	r2, [r3, #0]
    27d0:	20b0      	movs	r0, #176	; 0xb0
    27d2:	0080      	lsls	r0, r0, #2
    27d4:	183b      	adds	r3, r7, r0
    27d6:	681b      	ldr	r3, [r3, #0]
    27d8:	411a      	asrs	r2, r3
    27da:	0013      	movs	r3, r2
    27dc:	2201      	movs	r2, #1
    27de:	4013      	ands	r3, r2
    27e0:	d012      	beq.n	2808 <execute_next+0x2470>
    27e2:	21b1      	movs	r1, #177	; 0xb1
    27e4:	0089      	lsls	r1, r1, #2
    27e6:	187b      	adds	r3, r7, r1
    27e8:	681b      	ldr	r3, [r3, #0]
    27ea:	3b04      	subs	r3, #4
    27ec:	187a      	adds	r2, r7, r1
    27ee:	6013      	str	r3, [r2, #0]
    27f0:	4b96      	ldr	r3, [pc, #600]	; (2a4c <execute_next+0x26b4>)
    27f2:	183a      	adds	r2, r7, r0
    27f4:	6812      	ldr	r2, [r2, #0]
    27f6:	0092      	lsls	r2, r2, #2
    27f8:	58d3      	ldr	r3, [r2, r3]
    27fa:	001a      	movs	r2, r3
    27fc:	187b      	adds	r3, r7, r1
    27fe:	681b      	ldr	r3, [r3, #0]
    2800:	0019      	movs	r1, r3
    2802:	0010      	movs	r0, r2
    2804:	f7ff fffe 	bl	28c <store_to_memory>
    2808:	22b0      	movs	r2, #176	; 0xb0
    280a:	0092      	lsls	r2, r2, #2
    280c:	18bb      	adds	r3, r7, r2
    280e:	681b      	ldr	r3, [r3, #0]
    2810:	3b01      	subs	r3, #1
    2812:	18ba      	adds	r2, r7, r2
    2814:	6013      	str	r3, [r2, #0]
    2816:	23b0      	movs	r3, #176	; 0xb0
    2818:	009b      	lsls	r3, r3, #2
    281a:	18fb      	adds	r3, r7, r3
    281c:	681b      	ldr	r3, [r3, #0]
    281e:	2b00      	cmp	r3, #0
    2820:	dad3      	bge.n	27ca <execute_next+0x2432>
    2822:	23b1      	movs	r3, #177	; 0xb1
    2824:	009b      	lsls	r3, r3, #2
    2826:	18fb      	adds	r3, r7, r3
    2828:	681a      	ldr	r2, [r3, #0]
    282a:	4b88      	ldr	r3, [pc, #544]	; (2a4c <execute_next+0x26b4>)
    282c:	635a      	str	r2, [r3, #52]	; 0x34
    282e:	2300      	movs	r3, #0
    2830:	e312      	b.n	2e58 <execute_next+0x2ac0>
    2832:	4884      	ldr	r0, [pc, #528]	; (2a44 <execute_next+0x26ac>)
    2834:	183b      	adds	r3, r7, r0
    2836:	881b      	ldrh	r3, [r3, #0]
    2838:	0a5b      	lsrs	r3, r3, #9
    283a:	b29b      	uxth	r3, r3
    283c:	001a      	movs	r2, r3
    283e:	237f      	movs	r3, #127	; 0x7f
    2840:	4013      	ands	r3, r2
    2842:	2b5e      	cmp	r3, #94	; 0x5e
    2844:	d164      	bne.n	2910 <execute_next+0x2578>
    2846:	183b      	adds	r3, r7, r0
    2848:	881b      	ldrh	r3, [r3, #0]
    284a:	0a1b      	lsrs	r3, r3, #8
    284c:	b29b      	uxth	r3, r3
    284e:	b2da      	uxtb	r2, r3
    2850:	4b82      	ldr	r3, [pc, #520]	; (2a5c <execute_next+0x26c4>)
    2852:	18fb      	adds	r3, r7, r3
    2854:	2101      	movs	r1, #1
    2856:	400a      	ands	r2, r1
    2858:	701a      	strb	r2, [r3, #0]
    285a:	23a4      	movs	r3, #164	; 0xa4
    285c:	009b      	lsls	r3, r3, #2
    285e:	18fb      	adds	r3, r7, r3
    2860:	183a      	adds	r2, r7, r0
    2862:	8812      	ldrh	r2, [r2, #0]
    2864:	701a      	strb	r2, [r3, #0]
    2866:	4b79      	ldr	r3, [pc, #484]	; (2a4c <execute_next+0x26b4>)
    2868:	6b5b      	ldr	r3, [r3, #52]	; 0x34
    286a:	22af      	movs	r2, #175	; 0xaf
    286c:	0092      	lsls	r2, r2, #2
    286e:	18ba      	adds	r2, r7, r2
    2870:	6013      	str	r3, [r2, #0]
    2872:	2300      	movs	r3, #0
    2874:	22ae      	movs	r2, #174	; 0xae
    2876:	0092      	lsls	r2, r2, #2
    2878:	18ba      	adds	r2, r7, r2
    287a:	6013      	str	r3, [r2, #0]
    287c:	e026      	b.n	28cc <execute_next+0x2534>
    287e:	23a4      	movs	r3, #164	; 0xa4
    2880:	009b      	lsls	r3, r3, #2
    2882:	18fb      	adds	r3, r7, r3
    2884:	781a      	ldrb	r2, [r3, #0]
    2886:	21ae      	movs	r1, #174	; 0xae
    2888:	0089      	lsls	r1, r1, #2
    288a:	187b      	adds	r3, r7, r1
    288c:	681b      	ldr	r3, [r3, #0]
    288e:	411a      	asrs	r2, r3
    2890:	0013      	movs	r3, r2
    2892:	2201      	movs	r2, #1
    2894:	4013      	ands	r3, r2
    2896:	d012      	beq.n	28be <execute_next+0x2526>
    2898:	187b      	adds	r3, r7, r1
    289a:	681b      	ldr	r3, [r3, #0]
    289c:	009a      	lsls	r2, r3, #2
    289e:	4b6b      	ldr	r3, [pc, #428]	; (2a4c <execute_next+0x26b4>)
    28a0:	18d3      	adds	r3, r2, r3
    28a2:	24af      	movs	r4, #175	; 0xaf
    28a4:	00a4      	lsls	r4, r4, #2
    28a6:	193a      	adds	r2, r7, r4
    28a8:	6812      	ldr	r2, [r2, #0]
    28aa:	0011      	movs	r1, r2
    28ac:	0018      	movs	r0, r3
    28ae:	f7ff fffe 	bl	30c <load_from_memory>
    28b2:	0022      	movs	r2, r4
    28b4:	18bb      	adds	r3, r7, r2
    28b6:	681b      	ldr	r3, [r3, #0]
    28b8:	3304      	adds	r3, #4
    28ba:	18ba      	adds	r2, r7, r2
    28bc:	6013      	str	r3, [r2, #0]
    28be:	22ae      	movs	r2, #174	; 0xae
    28c0:	0092      	lsls	r2, r2, #2
    28c2:	18bb      	adds	r3, r7, r2
    28c4:	681b      	ldr	r3, [r3, #0]
    28c6:	3301      	adds	r3, #1
    28c8:	18ba      	adds	r2, r7, r2
    28ca:	6013      	str	r3, [r2, #0]
    28cc:	23ae      	movs	r3, #174	; 0xae
    28ce:	009b      	lsls	r3, r3, #2
    28d0:	18fb      	adds	r3, r7, r3
    28d2:	681b      	ldr	r3, [r3, #0]
    28d4:	2b07      	cmp	r3, #7
    28d6:	ddd2      	ble.n	287e <execute_next+0x24e6>
    28d8:	4b60      	ldr	r3, [pc, #384]	; (2a5c <execute_next+0x26c4>)
    28da:	18fb      	adds	r3, r7, r3
    28dc:	781b      	ldrb	r3, [r3, #0]
    28de:	2b01      	cmp	r3, #1
    28e0:	d10e      	bne.n	2900 <execute_next+0x2568>
    28e2:	24af      	movs	r4, #175	; 0xaf
    28e4:	00a4      	lsls	r4, r4, #2
    28e6:	193b      	adds	r3, r7, r4
    28e8:	681a      	ldr	r2, [r3, #0]
    28ea:	4b5d      	ldr	r3, [pc, #372]	; (2a60 <execute_next+0x26c8>)
    28ec:	0011      	movs	r1, r2
    28ee:	0018      	movs	r0, r3
    28f0:	f7ff fffe 	bl	30c <load_from_memory>
    28f4:	0022      	movs	r2, r4
    28f6:	18bb      	adds	r3, r7, r2
    28f8:	681b      	ldr	r3, [r3, #0]
    28fa:	3304      	adds	r3, #4
    28fc:	18ba      	adds	r2, r7, r2
    28fe:	6013      	str	r3, [r2, #0]
    2900:	23af      	movs	r3, #175	; 0xaf
    2902:	009b      	lsls	r3, r3, #2
    2904:	18fb      	adds	r3, r7, r3
    2906:	681a      	ldr	r2, [r3, #0]
    2908:	4b50      	ldr	r3, [pc, #320]	; (2a4c <execute_next+0x26b4>)
    290a:	635a      	str	r2, [r3, #52]	; 0x34
    290c:	2300      	movs	r3, #0
    290e:	e2a3      	b.n	2e58 <execute_next+0x2ac0>
    2910:	484c      	ldr	r0, [pc, #304]	; (2a44 <execute_next+0x26ac>)
    2912:	183b      	adds	r3, r7, r0
    2914:	881b      	ldrh	r3, [r3, #0]
    2916:	0b1b      	lsrs	r3, r3, #12
    2918:	b29b      	uxth	r3, r3
    291a:	001a      	movs	r2, r3
    291c:	230f      	movs	r3, #15
    291e:	4013      	ands	r3, r2
    2920:	2b0d      	cmp	r3, #13
    2922:	d000      	beq.n	2926 <execute_next+0x258e>
    2924:	e15c      	b.n	2be0 <execute_next+0x2848>
    2926:	183b      	adds	r3, r7, r0
    2928:	881b      	ldrh	r3, [r3, #0]
    292a:	0a1b      	lsrs	r3, r3, #8
    292c:	b29b      	uxth	r3, r3
    292e:	001a      	movs	r2, r3
    2930:	230f      	movs	r3, #15
    2932:	4013      	ands	r3, r2
    2934:	2b0d      	cmp	r3, #13
    2936:	dd00      	ble.n	293a <execute_next+0x25a2>
    2938:	e152      	b.n	2be0 <execute_next+0x2848>
    293a:	4b44      	ldr	r3, [pc, #272]	; (2a4c <execute_next+0x26b4>)
    293c:	6c1b      	ldr	r3, [r3, #64]	; 0x40
    293e:	0fda      	lsrs	r2, r3, #31
    2940:	4b48      	ldr	r3, [pc, #288]	; (2a64 <execute_next+0x26cc>)
    2942:	18fb      	adds	r3, r7, r3
    2944:	701a      	strb	r2, [r3, #0]
    2946:	4b41      	ldr	r3, [pc, #260]	; (2a4c <execute_next+0x26b4>)
    2948:	6c1b      	ldr	r3, [r3, #64]	; 0x40
    294a:	179b      	asrs	r3, r3, #30
    294c:	b2da      	uxtb	r2, r3
    294e:	23a9      	movs	r3, #169	; 0xa9
    2950:	009b      	lsls	r3, r3, #2
    2952:	18fb      	adds	r3, r7, r3
    2954:	2101      	movs	r1, #1
    2956:	400a      	ands	r2, r1
    2958:	701a      	strb	r2, [r3, #0]
    295a:	4b3c      	ldr	r3, [pc, #240]	; (2a4c <execute_next+0x26b4>)
    295c:	6c1b      	ldr	r3, [r3, #64]	; 0x40
    295e:	175b      	asrs	r3, r3, #29
    2960:	b2da      	uxtb	r2, r3
    2962:	4b41      	ldr	r3, [pc, #260]	; (2a68 <execute_next+0x26d0>)
    2964:	18fb      	adds	r3, r7, r3
    2966:	2101      	movs	r1, #1
    2968:	400a      	ands	r2, r1
    296a:	701a      	strb	r2, [r3, #0]
    296c:	4b37      	ldr	r3, [pc, #220]	; (2a4c <execute_next+0x26b4>)
    296e:	6c1b      	ldr	r3, [r3, #64]	; 0x40
    2970:	171b      	asrs	r3, r3, #28
    2972:	b2da      	uxtb	r2, r3
    2974:	4b3d      	ldr	r3, [pc, #244]	; (2a6c <execute_next+0x26d4>)
    2976:	18fb      	adds	r3, r7, r3
    2978:	2101      	movs	r1, #1
    297a:	400a      	ands	r2, r1
    297c:	701a      	strb	r2, [r3, #0]
    297e:	183b      	adds	r3, r7, r0
    2980:	881b      	ldrh	r3, [r3, #0]
    2982:	0a1b      	lsrs	r3, r3, #8
    2984:	b29b      	uxth	r3, r3
    2986:	b2da      	uxtb	r2, r3
    2988:	4839      	ldr	r0, [pc, #228]	; (2a70 <execute_next+0x26d8>)
    298a:	183b      	adds	r3, r7, r0
    298c:	210f      	movs	r1, #15
    298e:	400a      	ands	r2, r1
    2990:	701a      	strb	r2, [r3, #0]
    2992:	2300      	movs	r3, #0
    2994:	22ad      	movs	r2, #173	; 0xad
    2996:	0092      	lsls	r2, r2, #2
    2998:	18ba      	adds	r2, r7, r2
    299a:	6013      	str	r3, [r2, #0]
    299c:	183b      	adds	r3, r7, r0
    299e:	781b      	ldrb	r3, [r3, #0]
    29a0:	2b0d      	cmp	r3, #13
    29a2:	d900      	bls.n	29a6 <execute_next+0x260e>
    29a4:	e103      	b.n	2bae <execute_next+0x2816>
    29a6:	009a      	lsls	r2, r3, #2
    29a8:	4b32      	ldr	r3, [pc, #200]	; (2a74 <execute_next+0x26dc>)
    29aa:	18d3      	adds	r3, r2, r3
    29ac:	681b      	ldr	r3, [r3, #0]
    29ae:	469f      	mov	pc, r3
    29b0:	23a9      	movs	r3, #169	; 0xa9
    29b2:	009b      	lsls	r3, r3, #2
    29b4:	18fb      	adds	r3, r7, r3
    29b6:	781b      	ldrb	r3, [r3, #0]
    29b8:	2b01      	cmp	r3, #1
    29ba:	d000      	beq.n	29be <execute_next+0x2626>
    29bc:	e0dc      	b.n	2b78 <execute_next+0x27e0>
    29be:	2301      	movs	r3, #1
    29c0:	22ad      	movs	r2, #173	; 0xad
    29c2:	0092      	lsls	r2, r2, #2
    29c4:	18ba      	adds	r2, r7, r2
    29c6:	6013      	str	r3, [r2, #0]
    29c8:	e0d6      	b.n	2b78 <execute_next+0x27e0>
    29ca:	23a9      	movs	r3, #169	; 0xa9
    29cc:	009b      	lsls	r3, r3, #2
    29ce:	18fb      	adds	r3, r7, r3
    29d0:	781b      	ldrb	r3, [r3, #0]
    29d2:	2b00      	cmp	r3, #0
    29d4:	d000      	beq.n	29d8 <execute_next+0x2640>
    29d6:	e0d1      	b.n	2b7c <execute_next+0x27e4>
    29d8:	2301      	movs	r3, #1
    29da:	22ad      	movs	r2, #173	; 0xad
    29dc:	0092      	lsls	r2, r2, #2
    29de:	18ba      	adds	r2, r7, r2
    29e0:	6013      	str	r3, [r2, #0]
    29e2:	e0cb      	b.n	2b7c <execute_next+0x27e4>
    29e4:	4b20      	ldr	r3, [pc, #128]	; (2a68 <execute_next+0x26d0>)
    29e6:	18fb      	adds	r3, r7, r3
    29e8:	781b      	ldrb	r3, [r3, #0]
    29ea:	2b01      	cmp	r3, #1
    29ec:	d000      	beq.n	29f0 <execute_next+0x2658>
    29ee:	e0c7      	b.n	2b80 <execute_next+0x27e8>
    29f0:	2301      	movs	r3, #1
    29f2:	22ad      	movs	r2, #173	; 0xad
    29f4:	0092      	lsls	r2, r2, #2
    29f6:	18ba      	adds	r2, r7, r2
    29f8:	6013      	str	r3, [r2, #0]
    29fa:	e0c1      	b.n	2b80 <execute_next+0x27e8>
    29fc:	4b1a      	ldr	r3, [pc, #104]	; (2a68 <execute_next+0x26d0>)
    29fe:	18fb      	adds	r3, r7, r3
    2a00:	781b      	ldrb	r3, [r3, #0]
    2a02:	2b00      	cmp	r3, #0
    2a04:	d000      	beq.n	2a08 <execute_next+0x2670>
    2a06:	e0bd      	b.n	2b84 <execute_next+0x27ec>
    2a08:	2301      	movs	r3, #1
    2a0a:	22ad      	movs	r2, #173	; 0xad
    2a0c:	0092      	lsls	r2, r2, #2
    2a0e:	18ba      	adds	r2, r7, r2
    2a10:	6013      	str	r3, [r2, #0]
    2a12:	e0b7      	b.n	2b84 <execute_next+0x27ec>
    2a14:	4b13      	ldr	r3, [pc, #76]	; (2a64 <execute_next+0x26cc>)
    2a16:	18fb      	adds	r3, r7, r3
    2a18:	781b      	ldrb	r3, [r3, #0]
    2a1a:	2b01      	cmp	r3, #1
    2a1c:	d000      	beq.n	2a20 <execute_next+0x2688>
    2a1e:	e0b3      	b.n	2b88 <execute_next+0x27f0>
    2a20:	2301      	movs	r3, #1
    2a22:	22ad      	movs	r2, #173	; 0xad
    2a24:	0092      	lsls	r2, r2, #2
    2a26:	18ba      	adds	r2, r7, r2
    2a28:	6013      	str	r3, [r2, #0]
    2a2a:	e0ad      	b.n	2b88 <execute_next+0x27f0>
    2a2c:	4b0d      	ldr	r3, [pc, #52]	; (2a64 <execute_next+0x26cc>)
    2a2e:	18fb      	adds	r3, r7, r3
    2a30:	781b      	ldrb	r3, [r3, #0]
    2a32:	2b00      	cmp	r3, #0
    2a34:	d000      	beq.n	2a38 <execute_next+0x26a0>
    2a36:	e0a9      	b.n	2b8c <execute_next+0x27f4>
    2a38:	2301      	movs	r3, #1
    2a3a:	22ad      	movs	r2, #173	; 0xad
    2a3c:	0092      	lsls	r2, r2, #2
    2a3e:	18ba      	adds	r2, r7, r2
    2a40:	6013      	str	r3, [r2, #0]
    2a42:	e0a3      	b.n	2b8c <execute_next+0x27f4>
    2a44:	000002a6 	.word	0x000002a6
    2a48:	00000287 	.word	0x00000287
    2a4c:	00000000 	.word	0x00000000
    2a50:	0000028d 	.word	0x0000028d
    2a54:	0000028f 	.word	0x0000028f
    2a58:	0000028e 	.word	0x0000028e
    2a5c:	00000291 	.word	0x00000291
    2a60:	0000003c 	.word	0x0000003c
    2a64:	000002a5 	.word	0x000002a5
    2a68:	000002a3 	.word	0x000002a3
    2a6c:	000002a2 	.word	0x000002a2
    2a70:	000002a1 	.word	0x000002a1
    2a74:	000000ec 	.word	0x000000ec
    2a78:	4bce      	ldr	r3, [pc, #824]	; (2db4 <execute_next+0x2a1c>)
    2a7a:	18fb      	adds	r3, r7, r3
    2a7c:	781b      	ldrb	r3, [r3, #0]
    2a7e:	2b01      	cmp	r3, #1
    2a80:	d000      	beq.n	2a84 <execute_next+0x26ec>
    2a82:	e085      	b.n	2b90 <execute_next+0x27f8>
    2a84:	2301      	movs	r3, #1
    2a86:	22ad      	movs	r2, #173	; 0xad
    2a88:	0092      	lsls	r2, r2, #2
    2a8a:	18ba      	adds	r2, r7, r2
    2a8c:	6013      	str	r3, [r2, #0]
    2a8e:	e07f      	b.n	2b90 <execute_next+0x27f8>
    2a90:	4bc8      	ldr	r3, [pc, #800]	; (2db4 <execute_next+0x2a1c>)
    2a92:	18fb      	adds	r3, r7, r3
    2a94:	781b      	ldrb	r3, [r3, #0]
    2a96:	2b00      	cmp	r3, #0
    2a98:	d000      	beq.n	2a9c <execute_next+0x2704>
    2a9a:	e07b      	b.n	2b94 <execute_next+0x27fc>
    2a9c:	2301      	movs	r3, #1
    2a9e:	22ad      	movs	r2, #173	; 0xad
    2aa0:	0092      	lsls	r2, r2, #2
    2aa2:	18ba      	adds	r2, r7, r2
    2aa4:	6013      	str	r3, [r2, #0]
    2aa6:	e075      	b.n	2b94 <execute_next+0x27fc>
    2aa8:	4bc3      	ldr	r3, [pc, #780]	; (2db8 <execute_next+0x2a20>)
    2aaa:	18fb      	adds	r3, r7, r3
    2aac:	781b      	ldrb	r3, [r3, #0]
    2aae:	2b01      	cmp	r3, #1
    2ab0:	d000      	beq.n	2ab4 <execute_next+0x271c>
    2ab2:	e071      	b.n	2b98 <execute_next+0x2800>
    2ab4:	23a9      	movs	r3, #169	; 0xa9
    2ab6:	009b      	lsls	r3, r3, #2
    2ab8:	18fb      	adds	r3, r7, r3
    2aba:	781b      	ldrb	r3, [r3, #0]
    2abc:	2b00      	cmp	r3, #0
    2abe:	d000      	beq.n	2ac2 <execute_next+0x272a>
    2ac0:	e06a      	b.n	2b98 <execute_next+0x2800>
    2ac2:	2301      	movs	r3, #1
    2ac4:	22ad      	movs	r2, #173	; 0xad
    2ac6:	0092      	lsls	r2, r2, #2
    2ac8:	18ba      	adds	r2, r7, r2
    2aca:	6013      	str	r3, [r2, #0]
    2acc:	e064      	b.n	2b98 <execute_next+0x2800>
    2ace:	4bba      	ldr	r3, [pc, #744]	; (2db8 <execute_next+0x2a20>)
    2ad0:	18fb      	adds	r3, r7, r3
    2ad2:	781b      	ldrb	r3, [r3, #0]
    2ad4:	2b00      	cmp	r3, #0
    2ad6:	d005      	beq.n	2ae4 <execute_next+0x274c>
    2ad8:	23a9      	movs	r3, #169	; 0xa9
    2ada:	009b      	lsls	r3, r3, #2
    2adc:	18fb      	adds	r3, r7, r3
    2ade:	781b      	ldrb	r3, [r3, #0]
    2ae0:	2b01      	cmp	r3, #1
    2ae2:	d15b      	bne.n	2b9c <execute_next+0x2804>
    2ae4:	2301      	movs	r3, #1
    2ae6:	22ad      	movs	r2, #173	; 0xad
    2ae8:	0092      	lsls	r2, r2, #2
    2aea:	18ba      	adds	r2, r7, r2
    2aec:	6013      	str	r3, [r2, #0]
    2aee:	e055      	b.n	2b9c <execute_next+0x2804>
    2af0:	4bb2      	ldr	r3, [pc, #712]	; (2dbc <execute_next+0x2a24>)
    2af2:	18fa      	adds	r2, r7, r3
    2af4:	4baf      	ldr	r3, [pc, #700]	; (2db4 <execute_next+0x2a1c>)
    2af6:	18fb      	adds	r3, r7, r3
    2af8:	7812      	ldrb	r2, [r2, #0]
    2afa:	781b      	ldrb	r3, [r3, #0]
    2afc:	429a      	cmp	r2, r3
    2afe:	d14f      	bne.n	2ba0 <execute_next+0x2808>
    2b00:	2301      	movs	r3, #1
    2b02:	22ad      	movs	r2, #173	; 0xad
    2b04:	0092      	lsls	r2, r2, #2
    2b06:	18ba      	adds	r2, r7, r2
    2b08:	6013      	str	r3, [r2, #0]
    2b0a:	e049      	b.n	2ba0 <execute_next+0x2808>
    2b0c:	4bab      	ldr	r3, [pc, #684]	; (2dbc <execute_next+0x2a24>)
    2b0e:	18fa      	adds	r2, r7, r3
    2b10:	4ba8      	ldr	r3, [pc, #672]	; (2db4 <execute_next+0x2a1c>)
    2b12:	18fb      	adds	r3, r7, r3
    2b14:	7812      	ldrb	r2, [r2, #0]
    2b16:	781b      	ldrb	r3, [r3, #0]
    2b18:	429a      	cmp	r2, r3
    2b1a:	d043      	beq.n	2ba4 <execute_next+0x280c>
    2b1c:	2301      	movs	r3, #1
    2b1e:	22ad      	movs	r2, #173	; 0xad
    2b20:	0092      	lsls	r2, r2, #2
    2b22:	18ba      	adds	r2, r7, r2
    2b24:	6013      	str	r3, [r2, #0]
    2b26:	e03d      	b.n	2ba4 <execute_next+0x280c>
    2b28:	23a9      	movs	r3, #169	; 0xa9
    2b2a:	009b      	lsls	r3, r3, #2
    2b2c:	18fb      	adds	r3, r7, r3
    2b2e:	781b      	ldrb	r3, [r3, #0]
    2b30:	2b00      	cmp	r3, #0
    2b32:	d139      	bne.n	2ba8 <execute_next+0x2810>
    2b34:	4ba1      	ldr	r3, [pc, #644]	; (2dbc <execute_next+0x2a24>)
    2b36:	18fa      	adds	r2, r7, r3
    2b38:	4b9e      	ldr	r3, [pc, #632]	; (2db4 <execute_next+0x2a1c>)
    2b3a:	18fb      	adds	r3, r7, r3
    2b3c:	7812      	ldrb	r2, [r2, #0]
    2b3e:	781b      	ldrb	r3, [r3, #0]
    2b40:	429a      	cmp	r2, r3
    2b42:	d131      	bne.n	2ba8 <execute_next+0x2810>
    2b44:	2301      	movs	r3, #1
    2b46:	22ad      	movs	r2, #173	; 0xad
    2b48:	0092      	lsls	r2, r2, #2
    2b4a:	18ba      	adds	r2, r7, r2
    2b4c:	6013      	str	r3, [r2, #0]
    2b4e:	e02b      	b.n	2ba8 <execute_next+0x2810>
    2b50:	23a9      	movs	r3, #169	; 0xa9
    2b52:	009b      	lsls	r3, r3, #2
    2b54:	18fb      	adds	r3, r7, r3
    2b56:	781b      	ldrb	r3, [r3, #0]
    2b58:	2b01      	cmp	r3, #1
    2b5a:	d007      	beq.n	2b6c <execute_next+0x27d4>
    2b5c:	4b97      	ldr	r3, [pc, #604]	; (2dbc <execute_next+0x2a24>)
    2b5e:	18fa      	adds	r2, r7, r3
    2b60:	4b94      	ldr	r3, [pc, #592]	; (2db4 <execute_next+0x2a1c>)
    2b62:	18fb      	adds	r3, r7, r3
    2b64:	7812      	ldrb	r2, [r2, #0]
    2b66:	781b      	ldrb	r3, [r3, #0]
    2b68:	429a      	cmp	r2, r3
    2b6a:	d01f      	beq.n	2bac <execute_next+0x2814>
    2b6c:	2301      	movs	r3, #1
    2b6e:	22ad      	movs	r2, #173	; 0xad
    2b70:	0092      	lsls	r2, r2, #2
    2b72:	18ba      	adds	r2, r7, r2
    2b74:	6013      	str	r3, [r2, #0]
    2b76:	e019      	b.n	2bac <execute_next+0x2814>
    2b78:	46c0      	nop			; (mov r8, r8)
    2b7a:	e018      	b.n	2bae <execute_next+0x2816>
    2b7c:	46c0      	nop			; (mov r8, r8)
    2b7e:	e016      	b.n	2bae <execute_next+0x2816>
    2b80:	46c0      	nop			; (mov r8, r8)
    2b82:	e014      	b.n	2bae <execute_next+0x2816>
    2b84:	46c0      	nop			; (mov r8, r8)
    2b86:	e012      	b.n	2bae <execute_next+0x2816>
    2b88:	46c0      	nop			; (mov r8, r8)
    2b8a:	e010      	b.n	2bae <execute_next+0x2816>
    2b8c:	46c0      	nop			; (mov r8, r8)
    2b8e:	e00e      	b.n	2bae <execute_next+0x2816>
    2b90:	46c0      	nop			; (mov r8, r8)
    2b92:	e00c      	b.n	2bae <execute_next+0x2816>
    2b94:	46c0      	nop			; (mov r8, r8)
    2b96:	e00a      	b.n	2bae <execute_next+0x2816>
    2b98:	46c0      	nop			; (mov r8, r8)
    2b9a:	e008      	b.n	2bae <execute_next+0x2816>
    2b9c:	46c0      	nop			; (mov r8, r8)
    2b9e:	e006      	b.n	2bae <execute_next+0x2816>
    2ba0:	46c0      	nop			; (mov r8, r8)
    2ba2:	e004      	b.n	2bae <execute_next+0x2816>
    2ba4:	46c0      	nop			; (mov r8, r8)
    2ba6:	e002      	b.n	2bae <execute_next+0x2816>
    2ba8:	46c0      	nop			; (mov r8, r8)
    2baa:	e000      	b.n	2bae <execute_next+0x2816>
    2bac:	46c0      	nop			; (mov r8, r8)
    2bae:	23ad      	movs	r3, #173	; 0xad
    2bb0:	009b      	lsls	r3, r3, #2
    2bb2:	18fb      	adds	r3, r7, r3
    2bb4:	681b      	ldr	r3, [r3, #0]
    2bb6:	2b01      	cmp	r3, #1
    2bb8:	d110      	bne.n	2bdc <execute_next+0x2844>
    2bba:	21a8      	movs	r1, #168	; 0xa8
    2bbc:	0089      	lsls	r1, r1, #2
    2bbe:	187b      	adds	r3, r7, r1
    2bc0:	4a7f      	ldr	r2, [pc, #508]	; (2dc0 <execute_next+0x2a28>)
    2bc2:	18ba      	adds	r2, r7, r2
    2bc4:	8812      	ldrh	r2, [r2, #0]
    2bc6:	701a      	strb	r2, [r3, #0]
    2bc8:	4b7e      	ldr	r3, [pc, #504]	; (2dc4 <execute_next+0x2a2c>)
    2bca:	6bda      	ldr	r2, [r3, #60]	; 0x3c
    2bcc:	187b      	adds	r3, r7, r1
    2bce:	781b      	ldrb	r3, [r3, #0]
    2bd0:	b25b      	sxtb	r3, r3
    2bd2:	3301      	adds	r3, #1
    2bd4:	005b      	lsls	r3, r3, #1
    2bd6:	18d2      	adds	r2, r2, r3
    2bd8:	4b7a      	ldr	r3, [pc, #488]	; (2dc4 <execute_next+0x2a2c>)
    2bda:	63da      	str	r2, [r3, #60]	; 0x3c
    2bdc:	2300      	movs	r3, #0
    2bde:	e13b      	b.n	2e58 <execute_next+0x2ac0>
    2be0:	4977      	ldr	r1, [pc, #476]	; (2dc0 <execute_next+0x2a28>)
    2be2:	187b      	adds	r3, r7, r1
    2be4:	881b      	ldrh	r3, [r3, #0]
    2be6:	0adb      	lsrs	r3, r3, #11
    2be8:	b29b      	uxth	r3, r3
    2bea:	001a      	movs	r2, r3
    2bec:	231f      	movs	r3, #31
    2bee:	4013      	ands	r3, r2
    2bf0:	2b1c      	cmp	r3, #28
    2bf2:	d129      	bne.n	2c48 <execute_next+0x28b0>
    2bf4:	0008      	movs	r0, r1
    2bf6:	187b      	adds	r3, r7, r1
    2bf8:	2200      	movs	r2, #0
    2bfa:	5e9a      	ldrsh	r2, [r3, r2]
    2bfc:	4972      	ldr	r1, [pc, #456]	; (2dc8 <execute_next+0x2a30>)
    2bfe:	187b      	adds	r3, r7, r1
    2c00:	0552      	lsls	r2, r2, #21
    2c02:	0d52      	lsrs	r2, r2, #21
    2c04:	801a      	strh	r2, [r3, #0]
    2c06:	183b      	adds	r3, r7, r0
    2c08:	881b      	ldrh	r3, [r3, #0]
    2c0a:	0a9b      	lsrs	r3, r3, #10
    2c0c:	b29b      	uxth	r3, r3
    2c0e:	001a      	movs	r2, r3
    2c10:	2301      	movs	r3, #1
    2c12:	4013      	ands	r3, r2
    2c14:	d00b      	beq.n	2c2e <execute_next+0x2896>
    2c16:	187b      	adds	r3, r7, r1
    2c18:	2200      	movs	r2, #0
    2c1a:	5e9b      	ldrsh	r3, [r3, r2]
    2c1c:	015a      	lsls	r2, r3, #5
    2c1e:	187b      	adds	r3, r7, r1
    2c20:	801a      	strh	r2, [r3, #0]
    2c22:	187b      	adds	r3, r7, r1
    2c24:	187a      	adds	r2, r7, r1
    2c26:	2100      	movs	r1, #0
    2c28:	5e52      	ldrsh	r2, [r2, r1]
    2c2a:	1152      	asrs	r2, r2, #5
    2c2c:	801a      	strh	r2, [r3, #0]
    2c2e:	4b65      	ldr	r3, [pc, #404]	; (2dc4 <execute_next+0x2a2c>)
    2c30:	6bda      	ldr	r2, [r3, #60]	; 0x3c
    2c32:	4b65      	ldr	r3, [pc, #404]	; (2dc8 <execute_next+0x2a30>)
    2c34:	18fb      	adds	r3, r7, r3
    2c36:	2100      	movs	r1, #0
    2c38:	5e5b      	ldrsh	r3, [r3, r1]
    2c3a:	3301      	adds	r3, #1
    2c3c:	005b      	lsls	r3, r3, #1
    2c3e:	18d2      	adds	r2, r2, r3
    2c40:	4b60      	ldr	r3, [pc, #384]	; (2dc4 <execute_next+0x2a2c>)
    2c42:	63da      	str	r2, [r3, #60]	; 0x3c
    2c44:	2300      	movs	r3, #0
    2c46:	e107      	b.n	2e58 <execute_next+0x2ac0>
    2c48:	495d      	ldr	r1, [pc, #372]	; (2dc0 <execute_next+0x2a28>)
    2c4a:	187b      	adds	r3, r7, r1
    2c4c:	881b      	ldrh	r3, [r3, #0]
    2c4e:	0adb      	lsrs	r3, r3, #11
    2c50:	b29b      	uxth	r3, r3
    2c52:	001a      	movs	r2, r3
    2c54:	231f      	movs	r3, #31
    2c56:	4013      	ands	r3, r2
    2c58:	2b1d      	cmp	r3, #29
    2c5a:	d163      	bne.n	2d24 <execute_next+0x298c>
    2c5c:	187b      	adds	r3, r7, r1
    2c5e:	881b      	ldrh	r3, [r3, #0]
    2c60:	085b      	lsrs	r3, r3, #1
    2c62:	b29b      	uxth	r3, r3
    2c64:	059b      	lsls	r3, r3, #22
    2c66:	0d9b      	lsrs	r3, r3, #22
    2c68:	22a5      	movs	r2, #165	; 0xa5
    2c6a:	0092      	lsls	r2, r2, #2
    2c6c:	18ba      	adds	r2, r7, r2
    2c6e:	6013      	str	r3, [r2, #0]
    2c70:	4b54      	ldr	r3, [pc, #336]	; (2dc4 <execute_next+0x2a2c>)
    2c72:	6bdb      	ldr	r3, [r3, #60]	; 0x3c
    2c74:	3b06      	subs	r3, #6
    2c76:	4a55      	ldr	r2, [pc, #340]	; (2dcc <execute_next+0x2a34>)
    2c78:	5cd3      	ldrb	r3, [r2, r3]
    2c7a:	b21a      	sxth	r2, r3
    2c7c:	4b51      	ldr	r3, [pc, #324]	; (2dc4 <execute_next+0x2a2c>)
    2c7e:	6bdb      	ldr	r3, [r3, #60]	; 0x3c
    2c80:	3b05      	subs	r3, #5
    2c82:	4952      	ldr	r1, [pc, #328]	; (2dcc <execute_next+0x2a34>)
    2c84:	5ccb      	ldrb	r3, [r1, r3]
    2c86:	021b      	lsls	r3, r3, #8
    2c88:	b21b      	sxth	r3, r3
    2c8a:	4313      	orrs	r3, r2
    2c8c:	b21a      	sxth	r2, r3
    2c8e:	4950      	ldr	r1, [pc, #320]	; (2dd0 <execute_next+0x2a38>)
    2c90:	187b      	adds	r3, r7, r1
    2c92:	801a      	strh	r2, [r3, #0]
    2c94:	187b      	adds	r3, r7, r1
    2c96:	881b      	ldrh	r3, [r3, #0]
    2c98:	0adb      	lsrs	r3, r3, #11
    2c9a:	b29b      	uxth	r3, r3
    2c9c:	001a      	movs	r2, r3
    2c9e:	231f      	movs	r3, #31
    2ca0:	4013      	ands	r3, r2
    2ca2:	2b1e      	cmp	r3, #30
    2ca4:	d00c      	beq.n	2cc0 <execute_next+0x2928>
    2ca6:	4b4b      	ldr	r3, [pc, #300]	; (2dd4 <execute_next+0x2a3c>)
    2ca8:	681b      	ldr	r3, [r3, #0]
    2caa:	68d8      	ldr	r0, [r3, #12]
    2cac:	4b45      	ldr	r3, [pc, #276]	; (2dc4 <execute_next+0x2a2c>)
    2cae:	6bdb      	ldr	r3, [r3, #60]	; 0x3c
    2cb0:	1f1a      	subs	r2, r3, #4
    2cb2:	187b      	adds	r3, r7, r1
    2cb4:	881b      	ldrh	r3, [r3, #0]
    2cb6:	4948      	ldr	r1, [pc, #288]	; (2dd8 <execute_next+0x2a40>)
    2cb8:	f7ff fffe 	bl	0 <fprintf>
    2cbc:	2301      	movs	r3, #1
    2cbe:	e0cb      	b.n	2e58 <execute_next+0x2ac0>
    2cc0:	4b43      	ldr	r3, [pc, #268]	; (2dd0 <execute_next+0x2a38>)
    2cc2:	18fb      	adds	r3, r7, r3
    2cc4:	881b      	ldrh	r3, [r3, #0]
    2cc6:	055b      	lsls	r3, r3, #21
    2cc8:	0d5b      	lsrs	r3, r3, #21
    2cca:	21ab      	movs	r1, #171	; 0xab
    2ccc:	0089      	lsls	r1, r1, #2
    2cce:	187a      	adds	r2, r7, r1
    2cd0:	6013      	str	r3, [r2, #0]
    2cd2:	187b      	adds	r3, r7, r1
    2cd4:	681b      	ldr	r3, [r3, #0]
    2cd6:	129b      	asrs	r3, r3, #10
    2cd8:	2201      	movs	r2, #1
    2cda:	4013      	ands	r3, r2
    2cdc:	d009      	beq.n	2cf2 <execute_next+0x295a>
    2cde:	187b      	adds	r3, r7, r1
    2ce0:	681b      	ldr	r3, [r3, #0]
    2ce2:	055b      	lsls	r3, r3, #21
    2ce4:	187a      	adds	r2, r7, r1
    2ce6:	6013      	str	r3, [r2, #0]
    2ce8:	187b      	adds	r3, r7, r1
    2cea:	681b      	ldr	r3, [r3, #0]
    2cec:	155b      	asrs	r3, r3, #21
    2cee:	187a      	adds	r2, r7, r1
    2cf0:	6013      	str	r3, [r2, #0]
    2cf2:	4b34      	ldr	r3, [pc, #208]	; (2dc4 <execute_next+0x2a2c>)
    2cf4:	6bda      	ldr	r2, [r3, #60]	; 0x3c
    2cf6:	4b33      	ldr	r3, [pc, #204]	; (2dc4 <execute_next+0x2a2c>)
    2cf8:	639a      	str	r2, [r3, #56]	; 0x38
    2cfa:	4b32      	ldr	r3, [pc, #200]	; (2dc4 <execute_next+0x2a2c>)
    2cfc:	6bda      	ldr	r2, [r3, #60]	; 0x3c
    2cfe:	23ab      	movs	r3, #171	; 0xab
    2d00:	009b      	lsls	r3, r3, #2
    2d02:	18fb      	adds	r3, r7, r3
    2d04:	681b      	ldr	r3, [r3, #0]
    2d06:	031b      	lsls	r3, r3, #12
    2d08:	18d2      	adds	r2, r2, r3
    2d0a:	23a5      	movs	r3, #165	; 0xa5
    2d0c:	009b      	lsls	r3, r3, #2
    2d0e:	18fb      	adds	r3, r7, r3
    2d10:	681b      	ldr	r3, [r3, #0]
    2d12:	009b      	lsls	r3, r3, #2
    2d14:	18d3      	adds	r3, r2, r3
    2d16:	2203      	movs	r2, #3
    2d18:	4393      	bics	r3, r2
    2d1a:	001a      	movs	r2, r3
    2d1c:	4b29      	ldr	r3, [pc, #164]	; (2dc4 <execute_next+0x2a2c>)
    2d1e:	63da      	str	r2, [r3, #60]	; 0x3c
    2d20:	2300      	movs	r3, #0
    2d22:	e099      	b.n	2e58 <execute_next+0x2ac0>
    2d24:	4b26      	ldr	r3, [pc, #152]	; (2dc0 <execute_next+0x2a28>)
    2d26:	18fb      	adds	r3, r7, r3
    2d28:	881b      	ldrh	r3, [r3, #0]
    2d2a:	0adb      	lsrs	r3, r3, #11
    2d2c:	b29b      	uxth	r3, r3
    2d2e:	001a      	movs	r2, r3
    2d30:	231f      	movs	r3, #31
    2d32:	4013      	ands	r3, r2
    2d34:	2b1e      	cmp	r3, #30
    2d36:	d101      	bne.n	2d3c <execute_next+0x29a4>
    2d38:	2300      	movs	r3, #0
    2d3a:	e08d      	b.n	2e58 <execute_next+0x2ac0>
    2d3c:	4920      	ldr	r1, [pc, #128]	; (2dc0 <execute_next+0x2a28>)
    2d3e:	187b      	adds	r3, r7, r1
    2d40:	881b      	ldrh	r3, [r3, #0]
    2d42:	0adb      	lsrs	r3, r3, #11
    2d44:	b29b      	uxth	r3, r3
    2d46:	001a      	movs	r2, r3
    2d48:	231f      	movs	r3, #31
    2d4a:	4013      	ands	r3, r2
    2d4c:	2b1f      	cmp	r3, #31
    2d4e:	d000      	beq.n	2d52 <execute_next+0x29ba>
    2d50:	e075      	b.n	2e3e <execute_next+0x2aa6>
    2d52:	187b      	adds	r3, r7, r1
    2d54:	881b      	ldrh	r3, [r3, #0]
    2d56:	055b      	lsls	r3, r3, #21
    2d58:	0d5b      	lsrs	r3, r3, #21
    2d5a:	22a7      	movs	r2, #167	; 0xa7
    2d5c:	0092      	lsls	r2, r2, #2
    2d5e:	18ba      	adds	r2, r7, r2
    2d60:	6013      	str	r3, [r2, #0]
    2d62:	4b18      	ldr	r3, [pc, #96]	; (2dc4 <execute_next+0x2a2c>)
    2d64:	6bdb      	ldr	r3, [r3, #60]	; 0x3c
    2d66:	3b06      	subs	r3, #6
    2d68:	4a18      	ldr	r2, [pc, #96]	; (2dcc <execute_next+0x2a34>)
    2d6a:	5cd3      	ldrb	r3, [r2, r3]
    2d6c:	b21a      	sxth	r2, r3
    2d6e:	4b15      	ldr	r3, [pc, #84]	; (2dc4 <execute_next+0x2a2c>)
    2d70:	6bdb      	ldr	r3, [r3, #60]	; 0x3c
    2d72:	3b05      	subs	r3, #5
    2d74:	4915      	ldr	r1, [pc, #84]	; (2dcc <execute_next+0x2a34>)
    2d76:	5ccb      	ldrb	r3, [r1, r3]
    2d78:	021b      	lsls	r3, r3, #8
    2d7a:	b21b      	sxth	r3, r3
    2d7c:	4313      	orrs	r3, r2
    2d7e:	b21a      	sxth	r2, r3
    2d80:	4916      	ldr	r1, [pc, #88]	; (2ddc <execute_next+0x2a44>)
    2d82:	187b      	adds	r3, r7, r1
    2d84:	801a      	strh	r2, [r3, #0]
    2d86:	187b      	adds	r3, r7, r1
    2d88:	881b      	ldrh	r3, [r3, #0]
    2d8a:	0adb      	lsrs	r3, r3, #11
    2d8c:	b29b      	uxth	r3, r3
    2d8e:	001a      	movs	r2, r3
    2d90:	231f      	movs	r3, #31
    2d92:	4013      	ands	r3, r2
    2d94:	2b1e      	cmp	r3, #30
    2d96:	d023      	beq.n	2de0 <execute_next+0x2a48>
    2d98:	4b0e      	ldr	r3, [pc, #56]	; (2dd4 <execute_next+0x2a3c>)
    2d9a:	681b      	ldr	r3, [r3, #0]
    2d9c:	68d8      	ldr	r0, [r3, #12]
    2d9e:	4b09      	ldr	r3, [pc, #36]	; (2dc4 <execute_next+0x2a2c>)
    2da0:	6bdb      	ldr	r3, [r3, #60]	; 0x3c
    2da2:	1f1a      	subs	r2, r3, #4
    2da4:	187b      	adds	r3, r7, r1
    2da6:	881b      	ldrh	r3, [r3, #0]
    2da8:	490b      	ldr	r1, [pc, #44]	; (2dd8 <execute_next+0x2a40>)
    2daa:	f7ff fffe 	bl	0 <fprintf>
    2dae:	2301      	movs	r3, #1
    2db0:	e052      	b.n	2e58 <execute_next+0x2ac0>
    2db2:	46c0      	nop			; (mov r8, r8)
    2db4:	000002a2 	.word	0x000002a2
    2db8:	000002a3 	.word	0x000002a3
    2dbc:	000002a5 	.word	0x000002a5
    2dc0:	000002a6 	.word	0x000002a6
    2dc4:	00000000 	.word	0x00000000
    2dc8:	000002b2 	.word	0x000002b2
    2dcc:	00000000 	.word	0x00000000
    2dd0:	00000292 	.word	0x00000292
    2dd4:	00000000 	.word	0x00000000
    2dd8:	00000078 	.word	0x00000078
    2ddc:	0000029a 	.word	0x0000029a
    2de0:	4b20      	ldr	r3, [pc, #128]	; (2e64 <execute_next+0x2acc>)
    2de2:	18fb      	adds	r3, r7, r3
    2de4:	881b      	ldrh	r3, [r3, #0]
    2de6:	055b      	lsls	r3, r3, #21
    2de8:	0d5b      	lsrs	r3, r3, #21
    2dea:	21aa      	movs	r1, #170	; 0xaa
    2dec:	0089      	lsls	r1, r1, #2
    2dee:	187a      	adds	r2, r7, r1
    2df0:	6013      	str	r3, [r2, #0]
    2df2:	187b      	adds	r3, r7, r1
    2df4:	681b      	ldr	r3, [r3, #0]
    2df6:	129b      	asrs	r3, r3, #10
    2df8:	2201      	movs	r2, #1
    2dfa:	4013      	ands	r3, r2
    2dfc:	d009      	beq.n	2e12 <execute_next+0x2a7a>
    2dfe:	187b      	adds	r3, r7, r1
    2e00:	681b      	ldr	r3, [r3, #0]
    2e02:	055b      	lsls	r3, r3, #21
    2e04:	187a      	adds	r2, r7, r1
    2e06:	6013      	str	r3, [r2, #0]
    2e08:	187b      	adds	r3, r7, r1
    2e0a:	681b      	ldr	r3, [r3, #0]
    2e0c:	155b      	asrs	r3, r3, #21
    2e0e:	187a      	adds	r2, r7, r1
    2e10:	6013      	str	r3, [r2, #0]
    2e12:	4b15      	ldr	r3, [pc, #84]	; (2e68 <execute_next+0x2ad0>)
    2e14:	6bda      	ldr	r2, [r3, #60]	; 0x3c
    2e16:	4b14      	ldr	r3, [pc, #80]	; (2e68 <execute_next+0x2ad0>)
    2e18:	639a      	str	r2, [r3, #56]	; 0x38
    2e1a:	4b13      	ldr	r3, [pc, #76]	; (2e68 <execute_next+0x2ad0>)
    2e1c:	6bda      	ldr	r2, [r3, #60]	; 0x3c
    2e1e:	23aa      	movs	r3, #170	; 0xaa
    2e20:	009b      	lsls	r3, r3, #2
    2e22:	18fb      	adds	r3, r7, r3
    2e24:	681b      	ldr	r3, [r3, #0]
    2e26:	0319      	lsls	r1, r3, #12
    2e28:	23a7      	movs	r3, #167	; 0xa7
    2e2a:	009b      	lsls	r3, r3, #2
    2e2c:	18fb      	adds	r3, r7, r3
    2e2e:	681b      	ldr	r3, [r3, #0]
    2e30:	005b      	lsls	r3, r3, #1
    2e32:	18cb      	adds	r3, r1, r3
    2e34:	18d2      	adds	r2, r2, r3
    2e36:	4b0c      	ldr	r3, [pc, #48]	; (2e68 <execute_next+0x2ad0>)
    2e38:	63da      	str	r2, [r3, #60]	; 0x3c
    2e3a:	2300      	movs	r3, #0
    2e3c:	e00c      	b.n	2e58 <execute_next+0x2ac0>
    2e3e:	4b0b      	ldr	r3, [pc, #44]	; (2e6c <execute_next+0x2ad4>)
    2e40:	681b      	ldr	r3, [r3, #0]
    2e42:	68d8      	ldr	r0, [r3, #12]
    2e44:	4b08      	ldr	r3, [pc, #32]	; (2e68 <execute_next+0x2ad0>)
    2e46:	6bdb      	ldr	r3, [r3, #60]	; 0x3c
    2e48:	1f1a      	subs	r2, r3, #4
    2e4a:	4b09      	ldr	r3, [pc, #36]	; (2e70 <execute_next+0x2ad8>)
    2e4c:	18fb      	adds	r3, r7, r3
    2e4e:	881b      	ldrh	r3, [r3, #0]
    2e50:	4908      	ldr	r1, [pc, #32]	; (2e74 <execute_next+0x2adc>)
    2e52:	f7ff fffe 	bl	0 <fprintf>
    2e56:	2301      	movs	r3, #1
    2e58:	0018      	movs	r0, r3
    2e5a:	46bd      	mov	sp, r7
    2e5c:	23b3      	movs	r3, #179	; 0xb3
    2e5e:	009b      	lsls	r3, r3, #2
    2e60:	449d      	add	sp, r3
    2e62:	bdf0      	pop	{r4, r5, r6, r7, pc}
    2e64:	0000029a 	.word	0x0000029a
	...
    2e70:	000002a6 	.word	0x000002a6
    2e74:	000000c8 	.word	0x000000c8

00002e78 <debug_dialog>:
    2e78:	b590      	push	{r4, r7, lr}
    2e7a:	b0a1      	sub	sp, #132	; 0x84
    2e7c:	af02      	add	r7, sp, #8
    2e7e:	4bc2      	ldr	r3, [pc, #776]	; (3188 <debug_dialog+0x310>)
    2e80:	6bdb      	ldr	r3, [r3, #60]	; 0x3c
    2e82:	3b04      	subs	r3, #4
    2e84:	4ac1      	ldr	r2, [pc, #772]	; (318c <debug_dialog+0x314>)
    2e86:	5cd3      	ldrb	r3, [r2, r3]
    2e88:	b21a      	sxth	r2, r3
    2e8a:	4bbf      	ldr	r3, [pc, #764]	; (3188 <debug_dialog+0x310>)
    2e8c:	6bdb      	ldr	r3, [r3, #60]	; 0x3c
    2e8e:	3b03      	subs	r3, #3
    2e90:	49be      	ldr	r1, [pc, #760]	; (318c <debug_dialog+0x314>)
    2e92:	5ccb      	ldrb	r3, [r1, r3]
    2e94:	021b      	lsls	r3, r3, #8
    2e96:	b21b      	sxth	r3, r3
    2e98:	4313      	orrs	r3, r2
    2e9a:	b21a      	sxth	r2, r3
    2e9c:	2470      	movs	r4, #112	; 0x70
    2e9e:	193b      	adds	r3, r7, r4
    2ea0:	801a      	strh	r2, [r3, #0]
    2ea2:	4bb9      	ldr	r3, [pc, #740]	; (3188 <debug_dialog+0x310>)
    2ea4:	6c1b      	ldr	r3, [r3, #64]	; 0x40
    2ea6:	0fda      	lsrs	r2, r3, #31
    2ea8:	236f      	movs	r3, #111	; 0x6f
    2eaa:	18fb      	adds	r3, r7, r3
    2eac:	701a      	strb	r2, [r3, #0]
    2eae:	4bb6      	ldr	r3, [pc, #728]	; (3188 <debug_dialog+0x310>)
    2eb0:	6c1b      	ldr	r3, [r3, #64]	; 0x40
    2eb2:	179b      	asrs	r3, r3, #30
    2eb4:	b2da      	uxtb	r2, r3
    2eb6:	236e      	movs	r3, #110	; 0x6e
    2eb8:	18fb      	adds	r3, r7, r3
    2eba:	2101      	movs	r1, #1
    2ebc:	400a      	ands	r2, r1
    2ebe:	701a      	strb	r2, [r3, #0]
    2ec0:	4bb1      	ldr	r3, [pc, #708]	; (3188 <debug_dialog+0x310>)
    2ec2:	6c1b      	ldr	r3, [r3, #64]	; 0x40
    2ec4:	175b      	asrs	r3, r3, #29
    2ec6:	b2da      	uxtb	r2, r3
    2ec8:	236d      	movs	r3, #109	; 0x6d
    2eca:	18fb      	adds	r3, r7, r3
    2ecc:	2101      	movs	r1, #1
    2ece:	400a      	ands	r2, r1
    2ed0:	701a      	strb	r2, [r3, #0]
    2ed2:	4bad      	ldr	r3, [pc, #692]	; (3188 <debug_dialog+0x310>)
    2ed4:	6c1b      	ldr	r3, [r3, #64]	; 0x40
    2ed6:	171b      	asrs	r3, r3, #28
    2ed8:	b2da      	uxtb	r2, r3
    2eda:	236c      	movs	r3, #108	; 0x6c
    2edc:	18fb      	adds	r3, r7, r3
    2ede:	2101      	movs	r1, #1
    2ee0:	400a      	ands	r2, r1
    2ee2:	701a      	strb	r2, [r3, #0]
    2ee4:	4baa      	ldr	r3, [pc, #680]	; (3190 <debug_dialog+0x318>)
    2ee6:	0018      	movs	r0, r3
    2ee8:	f7ff fffe 	bl	0 <puts>
    2eec:	4ba9      	ldr	r3, [pc, #676]	; (3194 <debug_dialog+0x31c>)
    2eee:	0018      	movs	r0, r3
    2ef0:	f7ff fffe 	bl	0 <puts>
    2ef4:	193b      	adds	r3, r7, r4
    2ef6:	881b      	ldrh	r3, [r3, #0]
    2ef8:	0adb      	lsrs	r3, r3, #11
    2efa:	b29b      	uxth	r3, r3
    2efc:	001a      	movs	r2, r3
    2efe:	231f      	movs	r3, #31
    2f00:	4013      	ands	r3, r2
    2f02:	2b1e      	cmp	r3, #30
    2f04:	d103      	bne.n	2f0e <debug_dialog+0x96>
    2f06:	4ba4      	ldr	r3, [pc, #656]	; (3198 <debug_dialog+0x320>)
    2f08:	0018      	movs	r0, r3
    2f0a:	f7ff fffe 	bl	0 <puts>
    2f0e:	2370      	movs	r3, #112	; 0x70
    2f10:	18fb      	adds	r3, r7, r3
    2f12:	8819      	ldrh	r1, [r3, #0]
    2f14:	4b9c      	ldr	r3, [pc, #624]	; (3188 <debug_dialog+0x310>)
    2f16:	6bdb      	ldr	r3, [r3, #60]	; 0x3c
    2f18:	1f1a      	subs	r2, r3, #4
    2f1a:	4ba0      	ldr	r3, [pc, #640]	; (319c <debug_dialog+0x324>)
    2f1c:	0018      	movs	r0, r3
    2f1e:	f7ff fffe 	bl	0 <printf>
    2f22:	4b9f      	ldr	r3, [pc, #636]	; (31a0 <debug_dialog+0x328>)
    2f24:	0018      	movs	r0, r3
    2f26:	f7ff fffe 	bl	0 <printf>
    2f2a:	4b9e      	ldr	r3, [pc, #632]	; (31a4 <debug_dialog+0x32c>)
    2f2c:	0018      	movs	r0, r3
    2f2e:	f7ff fffe 	bl	0 <puts>
    2f32:	4b9d      	ldr	r3, [pc, #628]	; (31a8 <debug_dialog+0x330>)
    2f34:	0018      	movs	r0, r3
    2f36:	f7ff fffe 	bl	0 <printf>
    2f3a:	4b93      	ldr	r3, [pc, #588]	; (3188 <debug_dialog+0x310>)
    2f3c:	6819      	ldr	r1, [r3, #0]
    2f3e:	4b92      	ldr	r3, [pc, #584]	; (3188 <debug_dialog+0x310>)
    2f40:	685a      	ldr	r2, [r3, #4]
    2f42:	4b91      	ldr	r3, [pc, #580]	; (3188 <debug_dialog+0x310>)
    2f44:	689c      	ldr	r4, [r3, #8]
    2f46:	4b90      	ldr	r3, [pc, #576]	; (3188 <debug_dialog+0x310>)
    2f48:	68db      	ldr	r3, [r3, #12]
    2f4a:	4898      	ldr	r0, [pc, #608]	; (31ac <debug_dialog+0x334>)
    2f4c:	9300      	str	r3, [sp, #0]
    2f4e:	0023      	movs	r3, r4
    2f50:	f7ff fffe 	bl	0 <printf>
    2f54:	4b92      	ldr	r3, [pc, #584]	; (31a0 <debug_dialog+0x328>)
    2f56:	0018      	movs	r0, r3
    2f58:	f7ff fffe 	bl	0 <printf>
    2f5c:	4b94      	ldr	r3, [pc, #592]	; (31b0 <debug_dialog+0x338>)
    2f5e:	0018      	movs	r0, r3
    2f60:	f7ff fffe 	bl	0 <puts>
    2f64:	4b90      	ldr	r3, [pc, #576]	; (31a8 <debug_dialog+0x330>)
    2f66:	0018      	movs	r0, r3
    2f68:	f7ff fffe 	bl	0 <printf>
    2f6c:	4b86      	ldr	r3, [pc, #536]	; (3188 <debug_dialog+0x310>)
    2f6e:	6919      	ldr	r1, [r3, #16]
    2f70:	4b85      	ldr	r3, [pc, #532]	; (3188 <debug_dialog+0x310>)
    2f72:	695a      	ldr	r2, [r3, #20]
    2f74:	4b84      	ldr	r3, [pc, #528]	; (3188 <debug_dialog+0x310>)
    2f76:	699c      	ldr	r4, [r3, #24]
    2f78:	4b83      	ldr	r3, [pc, #524]	; (3188 <debug_dialog+0x310>)
    2f7a:	69db      	ldr	r3, [r3, #28]
    2f7c:	488b      	ldr	r0, [pc, #556]	; (31ac <debug_dialog+0x334>)
    2f7e:	9300      	str	r3, [sp, #0]
    2f80:	0023      	movs	r3, r4
    2f82:	f7ff fffe 	bl	0 <printf>
    2f86:	4b86      	ldr	r3, [pc, #536]	; (31a0 <debug_dialog+0x328>)
    2f88:	0018      	movs	r0, r3
    2f8a:	f7ff fffe 	bl	0 <printf>
    2f8e:	4b89      	ldr	r3, [pc, #548]	; (31b4 <debug_dialog+0x33c>)
    2f90:	0018      	movs	r0, r3
    2f92:	f7ff fffe 	bl	0 <puts>
    2f96:	4b84      	ldr	r3, [pc, #528]	; (31a8 <debug_dialog+0x330>)
    2f98:	0018      	movs	r0, r3
    2f9a:	f7ff fffe 	bl	0 <printf>
    2f9e:	4b7a      	ldr	r3, [pc, #488]	; (3188 <debug_dialog+0x310>)
    2fa0:	6a19      	ldr	r1, [r3, #32]
    2fa2:	4b79      	ldr	r3, [pc, #484]	; (3188 <debug_dialog+0x310>)
    2fa4:	6a5a      	ldr	r2, [r3, #36]	; 0x24
    2fa6:	4b78      	ldr	r3, [pc, #480]	; (3188 <debug_dialog+0x310>)
    2fa8:	6a9c      	ldr	r4, [r3, #40]	; 0x28
    2faa:	4b77      	ldr	r3, [pc, #476]	; (3188 <debug_dialog+0x310>)
    2fac:	6adb      	ldr	r3, [r3, #44]	; 0x2c
    2fae:	487f      	ldr	r0, [pc, #508]	; (31ac <debug_dialog+0x334>)
    2fb0:	9300      	str	r3, [sp, #0]
    2fb2:	0023      	movs	r3, r4
    2fb4:	f7ff fffe 	bl	0 <printf>
    2fb8:	4b79      	ldr	r3, [pc, #484]	; (31a0 <debug_dialog+0x328>)
    2fba:	0018      	movs	r0, r3
    2fbc:	f7ff fffe 	bl	0 <printf>
    2fc0:	4b7d      	ldr	r3, [pc, #500]	; (31b8 <debug_dialog+0x340>)
    2fc2:	0018      	movs	r0, r3
    2fc4:	f7ff fffe 	bl	0 <puts>
    2fc8:	4b77      	ldr	r3, [pc, #476]	; (31a8 <debug_dialog+0x330>)
    2fca:	0018      	movs	r0, r3
    2fcc:	f7ff fffe 	bl	0 <printf>
    2fd0:	4b6d      	ldr	r3, [pc, #436]	; (3188 <debug_dialog+0x310>)
    2fd2:	6b19      	ldr	r1, [r3, #48]	; 0x30
    2fd4:	4b6c      	ldr	r3, [pc, #432]	; (3188 <debug_dialog+0x310>)
    2fd6:	6b5a      	ldr	r2, [r3, #52]	; 0x34
    2fd8:	4b6b      	ldr	r3, [pc, #428]	; (3188 <debug_dialog+0x310>)
    2fda:	6b9c      	ldr	r4, [r3, #56]	; 0x38
    2fdc:	4b6a      	ldr	r3, [pc, #424]	; (3188 <debug_dialog+0x310>)
    2fde:	6bdb      	ldr	r3, [r3, #60]	; 0x3c
    2fe0:	4872      	ldr	r0, [pc, #456]	; (31ac <debug_dialog+0x334>)
    2fe2:	9300      	str	r3, [sp, #0]
    2fe4:	0023      	movs	r3, r4
    2fe6:	f7ff fffe 	bl	0 <printf>
    2fea:	4b6d      	ldr	r3, [pc, #436]	; (31a0 <debug_dialog+0x328>)
    2fec:	0018      	movs	r0, r3
    2fee:	f7ff fffe 	bl	0 <printf>
    2ff2:	4b72      	ldr	r3, [pc, #456]	; (31bc <debug_dialog+0x344>)
    2ff4:	0018      	movs	r0, r3
    2ff6:	f7ff fffe 	bl	0 <puts>
    2ffa:	4b6b      	ldr	r3, [pc, #428]	; (31a8 <debug_dialog+0x330>)
    2ffc:	0018      	movs	r0, r3
    2ffe:	f7ff fffe 	bl	0 <printf>
    3002:	236f      	movs	r3, #111	; 0x6f
    3004:	18fb      	adds	r3, r7, r3
    3006:	7819      	ldrb	r1, [r3, #0]
    3008:	236e      	movs	r3, #110	; 0x6e
    300a:	18fb      	adds	r3, r7, r3
    300c:	781a      	ldrb	r2, [r3, #0]
    300e:	236d      	movs	r3, #109	; 0x6d
    3010:	18fb      	adds	r3, r7, r3
    3012:	781c      	ldrb	r4, [r3, #0]
    3014:	236c      	movs	r3, #108	; 0x6c
    3016:	18fb      	adds	r3, r7, r3
    3018:	781b      	ldrb	r3, [r3, #0]
    301a:	4864      	ldr	r0, [pc, #400]	; (31ac <debug_dialog+0x334>)
    301c:	9300      	str	r3, [sp, #0]
    301e:	0023      	movs	r3, r4
    3020:	f7ff fffe 	bl	0 <printf>
    3024:	4b66      	ldr	r3, [pc, #408]	; (31c0 <debug_dialog+0x348>)
    3026:	0018      	movs	r0, r3
    3028:	f7ff fffe 	bl	0 <printf>
    302c:	4b65      	ldr	r3, [pc, #404]	; (31c4 <debug_dialog+0x34c>)
    302e:	0018      	movs	r0, r3
    3030:	f7ff fffe 	bl	0 <puts>
    3034:	4b64      	ldr	r3, [pc, #400]	; (31c8 <debug_dialog+0x350>)
    3036:	0018      	movs	r0, r3
    3038:	f7ff fffe 	bl	0 <puts>
    303c:	4b63      	ldr	r3, [pc, #396]	; (31cc <debug_dialog+0x354>)
    303e:	0018      	movs	r0, r3
    3040:	f7ff fffe 	bl	0 <puts>
    3044:	4b58      	ldr	r3, [pc, #352]	; (31a8 <debug_dialog+0x330>)
    3046:	0018      	movs	r0, r3
    3048:	f7ff fffe 	bl	0 <printf>
    304c:	003a      	movs	r2, r7
    304e:	4b60      	ldr	r3, [pc, #384]	; (31d0 <debug_dialog+0x358>)
    3050:	0011      	movs	r1, r2
    3052:	0018      	movs	r0, r3
    3054:	f7ff fffe 	bl	0 <scanf>
    3058:	003b      	movs	r3, r7
    305a:	781b      	ldrb	r3, [r3, #0]
    305c:	2b71      	cmp	r3, #113	; 0x71
    305e:	d104      	bne.n	306a <debug_dialog+0x1f2>
    3060:	4b5c      	ldr	r3, [pc, #368]	; (31d4 <debug_dialog+0x35c>)
    3062:	0018      	movs	r0, r3
    3064:	f7ff fffe 	bl	0 <puts>
    3068:	e08b      	b.n	3182 <debug_dialog+0x30a>
    306a:	003b      	movs	r3, r7
    306c:	781b      	ldrb	r3, [r3, #0]
    306e:	2b64      	cmp	r3, #100	; 0x64
    3070:	d104      	bne.n	307c <debug_dialog+0x204>
    3072:	4b59      	ldr	r3, [pc, #356]	; (31d8 <debug_dialog+0x360>)
    3074:	0018      	movs	r0, r3
    3076:	f7ff fffe 	bl	0 <system>
    307a:	e7d3      	b.n	3024 <debug_dialog+0x1ac>
    307c:	2364      	movs	r3, #100	; 0x64
    307e:	18fb      	adds	r3, r7, r3
    3080:	2268      	movs	r2, #104	; 0x68
    3082:	18ba      	adds	r2, r7, r2
    3084:	4955      	ldr	r1, [pc, #340]	; (31dc <debug_dialog+0x364>)
    3086:	0038      	movs	r0, r7
    3088:	f7ff fffe 	bl	0 <sscanf>
    308c:	6eb9      	ldr	r1, [r7, #104]	; 0x68
    308e:	6e7c      	ldr	r4, [r7, #100]	; 0x64
    3090:	6e7a      	ldr	r2, [r7, #100]	; 0x64
    3092:	6ebb      	ldr	r3, [r7, #104]	; 0x68
    3094:	1ad3      	subs	r3, r2, r3
    3096:	3301      	adds	r3, #1
    3098:	4851      	ldr	r0, [pc, #324]	; (31e0 <debug_dialog+0x368>)
    309a:	0022      	movs	r2, r4
    309c:	f7ff fffe 	bl	0 <printf>
    30a0:	4b3f      	ldr	r3, [pc, #252]	; (31a0 <debug_dialog+0x328>)
    30a2:	0018      	movs	r0, r3
    30a4:	f7ff fffe 	bl	0 <printf>
    30a8:	2300      	movs	r3, #0
    30aa:	677b      	str	r3, [r7, #116]	; 0x74
    30ac:	e060      	b.n	3170 <debug_dialog+0x2f8>
    30ae:	6ebb      	ldr	r3, [r7, #104]	; 0x68
    30b0:	4a4c      	ldr	r2, [pc, #304]	; (31e4 <debug_dialog+0x36c>)
    30b2:	4293      	cmp	r3, r2
    30b4:	d806      	bhi.n	30c4 <debug_dialog+0x24c>
    30b6:	6eba      	ldr	r2, [r7, #104]	; 0x68
    30b8:	2373      	movs	r3, #115	; 0x73
    30ba:	18fb      	adds	r3, r7, r3
    30bc:	4933      	ldr	r1, [pc, #204]	; (318c <debug_dialog+0x314>)
    30be:	5c8a      	ldrb	r2, [r1, r2]
    30c0:	701a      	strb	r2, [r3, #0]
    30c2:	e012      	b.n	30ea <debug_dialog+0x272>
    30c4:	6ebb      	ldr	r3, [r7, #104]	; 0x68
    30c6:	4a48      	ldr	r2, [pc, #288]	; (31e8 <debug_dialog+0x370>)
    30c8:	4293      	cmp	r3, r2
    30ca:	d809      	bhi.n	30e0 <debug_dialog+0x268>
    30cc:	6ebb      	ldr	r3, [r7, #104]	; 0x68
    30ce:	22e0      	movs	r2, #224	; 0xe0
    30d0:	0612      	lsls	r2, r2, #24
    30d2:	189a      	adds	r2, r3, r2
    30d4:	2373      	movs	r3, #115	; 0x73
    30d6:	18fb      	adds	r3, r7, r3
    30d8:	4944      	ldr	r1, [pc, #272]	; (31ec <debug_dialog+0x374>)
    30da:	5c8a      	ldrb	r2, [r1, r2]
    30dc:	701a      	strb	r2, [r3, #0]
    30de:	e004      	b.n	30ea <debug_dialog+0x272>
    30e0:	4b43      	ldr	r3, [pc, #268]	; (31f0 <debug_dialog+0x378>)
    30e2:	0018      	movs	r0, r3
    30e4:	f7ff fffe 	bl	0 <puts>
    30e8:	e79c      	b.n	3024 <debug_dialog+0x1ac>
    30ea:	6ebb      	ldr	r3, [r7, #104]	; 0x68
    30ec:	2207      	movs	r2, #7
    30ee:	4013      	ands	r3, r2
    30f0:	d101      	bne.n	30f6 <debug_dialog+0x27e>
    30f2:	2300      	movs	r3, #0
    30f4:	677b      	str	r3, [r7, #116]	; 0x74
    30f6:	6f7b      	ldr	r3, [r7, #116]	; 0x74
    30f8:	2207      	movs	r2, #7
    30fa:	4013      	ands	r3, r2
    30fc:	d10d      	bne.n	311a <debug_dialog+0x2a2>
    30fe:	4b28      	ldr	r3, [pc, #160]	; (31a0 <debug_dialog+0x328>)
    3100:	0018      	movs	r0, r3
    3102:	f7ff fffe 	bl	0 <printf>
    3106:	6eba      	ldr	r2, [r7, #104]	; 0x68
    3108:	4b3a      	ldr	r3, [pc, #232]	; (31f4 <debug_dialog+0x37c>)
    310a:	0011      	movs	r1, r2
    310c:	0018      	movs	r0, r3
    310e:	f7ff fffe 	bl	0 <printf>
    3112:	4b25      	ldr	r3, [pc, #148]	; (31a8 <debug_dialog+0x330>)
    3114:	0018      	movs	r0, r3
    3116:	f7ff fffe 	bl	0 <printf>
    311a:	2473      	movs	r4, #115	; 0x73
    311c:	193b      	adds	r3, r7, r4
    311e:	781a      	ldrb	r2, [r3, #0]
    3120:	4b35      	ldr	r3, [pc, #212]	; (31f8 <debug_dialog+0x380>)
    3122:	0011      	movs	r1, r2
    3124:	0018      	movs	r0, r3
    3126:	f7ff fffe 	bl	0 <printf>
    312a:	4b25      	ldr	r3, [pc, #148]	; (31c0 <debug_dialog+0x348>)
    312c:	0018      	movs	r0, r3
    312e:	f7ff fffe 	bl	0 <printf>
    3132:	0022      	movs	r2, r4
    3134:	18bb      	adds	r3, r7, r2
    3136:	781b      	ldrb	r3, [r3, #0]
    3138:	2b1f      	cmp	r3, #31
    313a:	d90b      	bls.n	3154 <debug_dialog+0x2dc>
    313c:	18bb      	adds	r3, r7, r2
    313e:	781b      	ldrb	r3, [r3, #0]
    3140:	2bb0      	cmp	r3, #176	; 0xb0
    3142:	d807      	bhi.n	3154 <debug_dialog+0x2dc>
    3144:	18bb      	adds	r3, r7, r2
    3146:	781a      	ldrb	r2, [r3, #0]
    3148:	4b2c      	ldr	r3, [pc, #176]	; (31fc <debug_dialog+0x384>)
    314a:	0011      	movs	r1, r2
    314c:	0018      	movs	r0, r3
    314e:	f7ff fffe 	bl	0 <printf>
    3152:	e003      	b.n	315c <debug_dialog+0x2e4>
    3154:	4b2a      	ldr	r3, [pc, #168]	; (3200 <debug_dialog+0x388>)
    3156:	0018      	movs	r0, r3
    3158:	f7ff fffe 	bl	0 <printf>
    315c:	4b12      	ldr	r3, [pc, #72]	; (31a8 <debug_dialog+0x330>)
    315e:	0018      	movs	r0, r3
    3160:	f7ff fffe 	bl	0 <printf>
    3164:	6ebb      	ldr	r3, [r7, #104]	; 0x68
    3166:	3301      	adds	r3, #1
    3168:	66bb      	str	r3, [r7, #104]	; 0x68
    316a:	6f7b      	ldr	r3, [r7, #116]	; 0x74
    316c:	3301      	adds	r3, #1
    316e:	677b      	str	r3, [r7, #116]	; 0x74
    3170:	6eba      	ldr	r2, [r7, #104]	; 0x68
    3172:	6e7b      	ldr	r3, [r7, #100]	; 0x64
    3174:	429a      	cmp	r2, r3
    3176:	d99a      	bls.n	30ae <debug_dialog+0x236>
    3178:	4b0b      	ldr	r3, [pc, #44]	; (31a8 <debug_dialog+0x330>)
    317a:	0018      	movs	r0, r3
    317c:	f7ff fffe 	bl	0 <puts>
    3180:	e750      	b.n	3024 <debug_dialog+0x1ac>
    3182:	46bd      	mov	sp, r7
    3184:	b01f      	add	sp, #124	; 0x7c
    3186:	bd90      	pop	{r4, r7, pc}
	...
    3190:	00000124 	.word	0x00000124
    3194:	00000130 	.word	0x00000130
    3198:	00000144 	.word	0x00000144
    319c:	00000170 	.word	0x00000170
    31a0:	00000198 	.word	0x00000198
    31a4:	000001a0 	.word	0x000001a0
    31a8:	000001c4 	.word	0x000001c4
    31ac:	000001cc 	.word	0x000001cc
    31b0:	000001e4 	.word	0x000001e4
    31b4:	00000208 	.word	0x00000208
    31b8:	00000230 	.word	0x00000230
    31bc:	00000258 	.word	0x00000258
    31c0:	00000288 	.word	0x00000288
    31c4:	00000290 	.word	0x00000290
    31c8:	000002c8 	.word	0x000002c8
    31cc:	000002e8 	.word	0x000002e8
    31d0:	00000300 	.word	0x00000300
    31d4:	00000304 	.word	0x00000304
    31d8:	00000318 	.word	0x00000318
    31dc:	0000033c 	.word	0x0000033c
    31e0:	00000344 	.word	0x00000344
    31e4:	1ffffffe 	.word	0x1ffffffe
    31e8:	3ffffffe 	.word	0x3ffffffe
    31ec:	00000000 	.word	0x00000000
    31f0:	00000370 	.word	0x00000370
    31f4:	00000384 	.word	0x00000384
    31f8:	0000038c 	.word	0x0000038c
    31fc:	00000394 	.word	0x00000394
    3200:	000003a0 	.word	0x000003a0
